(lp0
I-1
aI11064201
aI44005301
aI11021201
aI11059301
aI44002501
aI33017901
aI11051901
aI42011701
aI31073801
aI44036001
aI11015502
aI11140631
aI32011601
aI11050741
aI11061601
aI31061301
aI44040501
aI62012501
aI31090701
aI11081301
aI11080581
aI51017801
aI11051181
aI51015301
aI11081601
aI42172701
aI44006401
aI13014301
aI14012461
aI36011001
aI53014101
aI44009901
aI44008401
aI11071001
aI36012201
aI45010371
aI41018801
aI51010301
aI44012431
aI52012201
aI11063601
aI31123501
aI44011521
aI45012401
aI31126901
aI42014901
aI53014001
aI51015401
aI11082101
aI37027161
aI44015001
aI65010303
aI44014201
aI11066701
aI31092501
aI44002801
aI50050201
aI41013501
aI37023201
aI51029501
aI31124201
aI11051401
aI46021701
aI12043901
aI11059401
aI42016401
aI13061701
aI50031501
aI51019981
aI22110101
aI37037051
aI33046001
aI11079901
aI21020531
aI32035211
aI11051311
aI31070901
aI44019201
aI35012201
aI45020151
aI44016101
aI43017901
aI50050901
aI13013601
aI45013101
aI14012401
aI15010809
aI42031901
aI44001311
aI33022101
aI35022301
aI61016601
aI52011801
aI34101501
aI35021401
aI35012401
aI44003401
aI42019201
aI46031301
aI61019701
aI61017401
aI41033101
aI33015901
aI11071081
aI50010181
aI44001471
aI31051401
aI44106301
aI44210101
aI11071051
aI11062001
aI32015501
aI42012001
aI31030701
aI31081501
aI32032701
aI50060401
aI41032701
aI31010101
aI63010151
aI51010101
aI23014901
aI42170201
aI13022901
aI31132901
aI32011801
aI41012601
aI11068701
aI31193601
aI31115101
aI35061201
aI31021201
aI33081701
aI61040401
aI45011801
aI11090531
aI64011201
aI31164101
aI35014171
aI21024001
aI43080202
aI44012491
aI44001111
aI11058401
aI31082501
aI44011501
aI44151801
aI44081001
aI51012301
aI44223601
aI32012001
aI42021401
aI43021001
aI31182001
aI32024601
aI31051101
aI43015101
aI41017801
aI52011501
aI11059601
aI31124701
aI11080551
aI11073601
aI31082301
aI43010701
aI44101081
aI13100301
aI35014351
aI11051801
aI34016201
aI21060801
aI42051501
aI33041401
aI35011202
aI11120641
aI33014201
aI61011201
aI35031301
aI61013501
aI21021801
aI65010641
aI44001151
aI53011801
aI31116001
aI44008901
aI11068801
aI32011501
aI35040601
aI32028011
aI15040821
aI44017901
aI63010101
aI61010701
aI12012401
aI51010041
aI34013001
aI51015001
aI31126501
aI36073501
aI51019941
aI12114201
aI34011301
aI31112601
aI32131301
aI23040311
aI44011061
aI11060691
aI44001241
aI45010421
aI15010801
aI33053001
aI44104801
aI44011861
aI51015101
aI31010701
aI31100801
aI61015401
aI44017001
aI11061801
aI51140061
aI61014501
aI44152501
aI22114301
aI11061501
aI50130111
aI51011021
aI13356621
aI45010571
aI45050151
aI31162801
aI52012401
aI11010521
aI42170501
aI44007501
aI33014101
aI51017601
aI51010231
aI22111701
aI43043201
aI41032501
aI51014201
aI44001031
aI11052101
aI51014001
aI33077701
aI42018901
aI11055101
aI15041551
aI32029591
aI43013701
aI42170801
aI12041401
aI61012101
aI22111301
aI21020601
aI23011401
aI11077901
aI11058801
aI21020481
aI37067061
aI22023201
aI42170301
aI44108801
aI44001801
aI15011031
aI51049990
aI51059970
aI31195201
aI37127071
aI35014421
aI11110711
aI42019091
aI50070301
aI35013871
aI51019301
aI22112501
aI23012201
aI43012201
aI35051901
aI44007401
aI52011401
aI44004201
aI21010721
aI46010801
aI51010601
aI44223201
aI46030801
aI45010451
aI23020321
aI44101101
aI44103901
aI44012471
aI23032001
aI32011901
aI35052001
aI22114201
aI52013701
aI42021801
aI43083501
aI21010841
aI22113301
aI32090701
aI21016601
aI33093401
aI13063301
aI35014161
aI32029151
aI51020301
aI37137041
aI51014301
aI12071301
aI23069951
aI44009101
aI46021601
aI33074901
aI12025601
aI43014101
aI34151201
aI44212001
aI33023301
aI11040501
aI11089201
aI33076401
aI33019331
aI14012521
aI44010601
aI36120011
aI21020741
aI11070791
aI23010351
aI44211501
aI15010401
aI36012601
aI13026601
aI42018001
aI42170101
aI43017801
aI33010201
aI41012101
aI42051301
aI32017211
aI35024651
aI11071041
aI31073301
aI41013601
aI11050801
aI11140901
aI42017601
aI42171401
aI21010851
aI11089701
aI46020701
aI21020731
aI50070081
aI46022701
aI22020801
aI32074711
aI45030321
aI33019291
aI33018591
aI32111911
aI41011001
aI33016401
aI36100261
aI61016101
aI11088801
aI41011601
aI34132401
aI11052001
aI42019061
aI42017301
aI34012101
aI12121021
aI33033601
aI61011801
aI44013901
aI32029051
aI33073201
aI31110101
aI11078801
aI64010402
aI44007101
aI44080301
aI21100141
aI11057401
aI11083501
aI12044501
aI35021502
aI14011101
aI37035901
aI44085401
aI51011161
aI44005601
aI31082401
aI51030041
aI22110201
aI51010561
aI32030501
aI11069901
aI37022201
aI14010302
aI31092301
aI41052401
aI32034301
aI11071061
aI31113001
aI37022301
aI46022101
aI50080901
aI51079201
aI32033801
aI35011702
aI44001271
aI11120681
aI61013801
aI33047601
aI45061701
aI21110141
aI34013101
aI45020211
aI43072501
aI41015901
aI32029501
aI51019201
aI44014301
aI34030801
aI33033201
aI31100601
aI62040201
aI43016801
aI37077001
aI44011141
aI23012221
aI32017411
aI61070101
aI13092101
aI13063501
aI41074101
aI36114101
aI43020101
aI51011801
aI51011031
aI33034301
aI11059201
aI37057031
aI35013801
aI44006201
aI21031101
aI61011601
aI53011301
aI42171701
aI14011001
aI35024341
aI31129201
aI33052001
aI42032001
aI37064501
aI61014901
aI31020701
aI44135501
aI31092601
aI33018001
aI22110601
aI35023001
aI51160161
aI34012601
aI21020521
aI32041801
aI37057041
aI37021801
aI44221601
aI44021501
aI13023201
aI31031701
aI22111201
aI50080501
aI22041801
aI50020091
aI51014101
aI37036101
aI31127301
aI44014501
aI64012311
aI37167051
aI44032001
aI31128201
aI43032201
aI23050901
aI45013301
aI44008101
aI51010141
aI31113901
aI46022001
aI32021201
aI44181601
aI44001351
aI36016101
aI37107011
aI11071201
aI35013501
aI44013101
aI33054101
aI21013201
aI32029071
aI22021701
aI44008201
aI43015601
aI11028801
aI32029101
aI37057101
aI61018801
aI11057701
aI21040801
aI37157071
aI21013401
aI35051701
aI51028801
aI65010411
aI44011181
aI13011601
aI36016401
aI23020211
aI21020621
aI23015001
aI32072001
aI23012701
aI42172801
aI44032201
aI45050141
aI35013921
aI31127901
aI53014301
aI32019201
aI23012541
aI61017801
aI33010301
aI14010901
aI32043511
aI36014701
aI62013501
aI32044011
aI13092501
aI51012701
aI51159961
aI51088211
aI43010801
aI51013701
aI51010691
aI11059801
aI51090091
aI43010601
aI23011101
aI33045001
aI61013201
aI51015201
aI50060141
aI32014301
aI41121601
aI11061191
aI37011001
aI13092301
aI31074201
aI42019801
aI13015101
aI45013001
aI21015301
aI43030401
aI44022401
aI34160701
aI21016101
aI53070601
aI44011731
aI65010403
aI41030701
aI14013481
aI37111901
aI12034401
aI32060901
aI13016101
aI14020701
aI11010101
aI34141001
aI33040301
aI52013901
aI44131141
aI42030101
aI44072301
aI11160851
aI23011011
aI21015401
aI21080171
aI22113601
aI32104411
aI44221301
aI42101001
aI36031201
aI32090601
aI44009001
aI32012901
aI50080121
aI54010204
aI44001621
aI37047051
aI52012101
aI44001041
aI44030801
aI44032401
aI31152501
aI51010401
aI44011511
aI37023301
aI41013401
aI44022501
aI44211201
aI33014601
aI33051901
aI14023611
aI31195001
aI33044201
aI32034601
aI42019441
aI33096801
aI41151701
aI32018711
aI33095301
aI21030231
aI32120501
aI32032901
aI34091601
aI32016911
aI31020101
aI31142701
aI31114201
aI37033201
aI34100201
aI51048801
aI32073811
aI44001481
aI44210701
aI61041001
aI13351801
aI12115501
aI15021691
aI35044251
aI51080601
aI51011881
aI21080121
aI33047301
aI44004101
aI32045111
aI32011701
aI32084711
aI51020191
aI33013501
aI22031501
aI53013201
aI31127401
aI51176121
aI13016901
aI33042101
aI52240801
aI33044901
aI32029161
aI15011931
aI32042101
aI44017301
aI51012001
aI33072201
aI44012081
aI44114001
aI23010421
aI33035301
aI51015831
aI11080961
aI42102701
aI33053701
aI32044211
aI31129101
aI42072401
aI62011401
aI32026001
aI33063901
aI37047011
aI15071071
aI31193501
aI32035111
aI50050701
aI32016111
aI42019051
aI51017401
aI34011601
aI13350601
aI53016101
aI22115501
aI32041001
aI52011201
aI32037111
aI42041401
aI53010301
aI61013001
aI52013501
aI37037121
aI33047501
aI51120601
aI21070171
aI33065101
aI45020701
aI53013101
aI32015911
aI61014701
aI33056001
aI42072501
aI22115401
aI44022701
aI61011301
aI11110751
aI31128301
aI11063401
aI44124401
aI34040701
aI65013041
aI51010111
aI12250811
aI31195901
aI13014601
aI11140671
aI53010801
aI35084761
aI51013801
aI33075601
aI11080821
aI11026801
aI61017501
aI14012931
aI51014221
aI11081401
aI42052201
aI31128901
aI61016801
aI44001581
aI31195101
aI44162701
aI31126701
aI35024861
aI32027411
aI41022701
aI22112203
aI31126401
aI35052901
aI34120701
aI64010051
aI11080771
aI36011701
aI14011501
aI45020131
aI33101601
aI41011401
aI44030701
aI13052201
aI44210401
aI31163001
aI42019021
aI33093101
aI13104901
aI62011201
aI14020301
aI11082801
aI33051001
aI21130121
aI33016601
aI32036311
aI51015881
aI31074101
aI42091601
aI11171291
aI14013251
aI61010901
aI32111411
aI44222401
aI33018251
aI42112401
aI41083001
aI44138101
aI44082601
aI44001331
aI45030291
aI44011291
aI44006601
aI42018301
aI22115601
aI31126301
aI44011271
aI31133001
aI62100501
aI51180101
aI32029511
aI35013981
aI42150501
aI12020741
aI31091101
aI44011771
aI31031601
aI37027041
aI35014771
aI32063111
aI31142601
aI11140861
aI43021701
aI32082101
aI11057601
aI11061171
aI35023831
aI43014901
aI45031801
aI32132611
aI32045011
aI37010101
aI36070202
aI33035801
aI11057301
aI41051301
aI41102101
aI43013601
aI22032301
aI51010121
aI61030601
aI35053101
aI33017201
aI44106401
aI32105211
aI33012501
aI44061101
aI53012301
aI36044801
aI61013101
aI51011401
aI50120601
aI31126201
aI51020031
aI43011701
aI31011501
aI32045411
aI53015901
aI51010021
aI31172801
aI32010201
aI42017801
aI42070801
aI51019701
aI35022501
aI41030301
aI12100871
aI32042501
aI12042701
aI44011301
aI41015401
aI52013301
aI12071061
aI32019151
aI53012901
aI33019311
aI21021501
aI32034501
aI42015601
aI44011491
aI12090881
aI31116401
aI51197601
aI33044601
aI44001191
aI46021101
aI61019101
aI44005901
aI41031701
aI51010031
aI12040771
aI37010801
aI44136001
aI33031601
aI14022471
aI37037061
aI33018631
aI36090381
aI32029301
aI44103601
aI33041601
aI45020502
aI13072201
aI46021801
aI61019801
aI23015101
aI44139201
aI32020602
aI36010801
aI43018501
aI34032201
aI35050901
aI37063201
aI51010201
aI51019501
aI32029081
aI51143201
aI32014401
aI31152101
aI33046201
aI32019171
aI44223501
aI41016901
aI41140201
aI31073501
aI44122501
aI35013901
aI32072411
aI32133011
aI37037151
aI31115501
aI35034471
aI44012291
aI44001541
aI33094601
aI32102601
aI13054601
aI33043901
aI14243551
aI31182201
aI41172301
aI36074401
aI41015501
aI33093601
aI12050931
aI23022201
aI52012901
aI44106701
aI51012501
aI31193901
aI32070601
aI50120201
aI41061401
aI44131071
aI32016011
aI21014501
aI63010121
aI42019901
aI31128601
aI33019441
aI45040151
aI31124901
aI31142101
aI50180071
aI51019901
aI44113501
aI34052001
aI53011201
aI32027211
aI11010661
aI11021141
aI33079401
aI64010241
aI35021202
aI42019011
aI61011501
aI32074611
aI53015001
aI34051501
aI33015801
aI44001291
aI33112501
aI37030701
aI11051111
aI33018101
aI51140101
aI13015401
aI33021401
aI44011621
aI51010701
aI44017401
aI14060901
aI42019311
aI43060701
aI50250021
aI35073841
aI42019331
aI31051001
aI21014101
aI22021901
aI32122311
aI11151341
aI11089801
aI51106121
aI44172001
aI52032601
aI15010802
aI23010331
aI44062301
aI31115801
aI21021601
aI11056801
aI37033801
aI51050201
aI32025101
aI11030401
aI44122201
aI11076101
aI44031001
aI62011801
aI44007901
aI37037111
aI11086501
aI15111531
aI63010141
aI44010402
aI33010101
aI21015201
aI33097201
aI51164101
aI13015301
aI51037601
aI32051801
aI41011201
aI42017701
aI41051101
aI50150301
aI35044711
aI32121111
aI15011991
aI13072101
aI13016631
aI11140881
aI44220801
aI44001591
aI44224601
aI44003301
aI32082501
aI33019101
aI41021501
aI21016801
aI21023201
aI31192001
aI42100201
aI34016001
aI13062001
aI36044201
aI50040301
aI44011741
aI36042101
aI34014401
aI35054281
aI32019011
aI33050101
aI37037021
aI51130511
aI33018531
aI32035911
aI14063241
aI32027911
aI41160301
aI41014601
aI44111601
aI15040601
aI44071201
aI31125001
aI44001761
aI35023101
aI44023201
aI52011001
aI22114601
aI41132101
aI32083311
aI32021801
aI37041801
aI33034401
aI43030301
aI42014201
aI53017301
aI35014681
aI51058101
aI37070301
aI51060101
aI44090901
aI11060961
aI42011001
aI50121301
aI33061401
aI43090701
aI35023971
aI51010311
aI33018461
aI33075301
aI44131901
aI11140651
aI32019041
aI34014801
aI44091101
aI21130601
aI34062601
aI50090091
aI44084501
aI22090201
aI32029561
aI42018201
aI35024591
aI32015301
aI33061021
aI33041901
aI37097071
aI14053341
aI53011101
aI31092401
aI12062601
aI21020711
aI61018901
aI12131501
aI36030201
aI51015841
aI44100310
aI44009701
aI32028711
aI31193801
aI41013701
aI41102201
aI41017901
aI41013901
aI50050131
aI14033131
aI33043701
aI52231301
aI44021701
aI33077301
aI36100801
aI41018201
aI14072601
aI32064511
aI34011202
aI33061501
aI44151501
aI33078501
aI33049701
aI42103301
aI41071801
aI33062801
aI32018911
aI23040321
aI53010201
aI61018501
aI42018101
aI43016901
aI31081601
aI42017501
aI54016241
aI15022021
aI32122711
aI41043601
aI44131801
aI41014701
aI32015601
aI51015861
aI44210901
aI33118361
aI32109031
aI32024701
aI33078901
aI44150601
aI44012131
aI44005101
aI50170021
aI43019001
aI45010631
aI23050421
aI34070801
aI41014501
aI21013801
aI31114801
aI42120201
aI51017701
aI43012501
aI34021001
aI37040101
aI65010511
aI33051601
aI44140801
aI44211901
aI21016201
aI34016601
aI37062201
aI36070701
aI11014501
aI42020901
aI44135701
aI35074031
aI44170102
aI12030501
aI13050501
aI44122401
aI32111211
aI34016501
aI33093701
aI13072601
aI34012401
aI23011701
aI50360031
aI44001061
aI32023701
aI52032401
aI35044151
aI21024401
aI50120171
aI33022401
aI44007801
aI44011161
aI34016801
aI12065801
aI50070701
aI31051501
aI11085501
aI33018561
aI42011601
aI65010203
aI35044301
aI44083101
aI42016201
aI31183601
aI31127701
aI44084801
aI33096501
aI51018001
aI61013401
aI13023401
aI31164501
aI51078921
aI44001381
aI23070221
aI35013201
aI36020201
aI44132101
aI51010191
aI34017101
aI11050101
aI42171301
aI44102101
aI37037041
aI33044101
aI31124401
aI44126002
aI37077021
aI37067051
aI63010702
aI35021802
aI33018521
aI44222301
aI32021601
aI35021902
aI37063401
aI44001101
aI32060401
aI32026501
aI31116201
aI42103401
aI42101101
aI34070301
aI51030011
aI33030101
aI21020691
aI37053401
aI31061201
aI42021901
aI43016001
aI32074911
aI34150301
aI33023101
aI35054791
aI51011701
aI51019001
aI32023501
aI51108601
aI33063601
aI11040401
aI32062511
aI42019221
aI21040401
aI41101701
aI52011601
aI11051601
aI33045901
aI31126001
aI33041111
aI21020491
aI33052801
aI12034901
aI32034001
aI11050621
aI43102901
aI53251101
aI11056701
aI32029041
aI62011601
aI41153001
aI51147101
aI32109041
aI32044511
aI62010201
aI44083901
aI51018301
aI44113801
aI21090071
aI42172201
aI44142501
aI42102201
aI35021602
aI32071201
aI32120801
aI41061601
aI33065601
aI32012801
aI35030181
aI33076201
aI31051801
aI43010401
aI50070121
aI44001021
aI32032601
aI31070101
aI22112401
aI14243571
aI36012501
aI61011041
aI52010601
aI31114401
aI22051401
aI36016001
aI12020671
aI37011101
aI50080041
aI61051301
aI42019151
aI32062611
aI36016601
aI12010981
aI45120401
aI32084011
aI51010171
aI11060501
aI34101601
aI32012601
aI63010202
aI42081301
aI36071701
aI32053511
aI43018401
aI62012101
aI21100111
aI50080701
aI11071331
aI32092311
aI51014801
aI51010161
aI32091801
aI51130161
aI31164001
aI34013601
aI35024661
aI21130091
aI23050881
aI45010521
aI42019351
aI33078101
aI33019461
aI23100301
aI32042001
aI31124501
aI51015971
aI34022101
aI44001531
aI43103001
aI21030601
aI12080641
aI50080141
aI42062801
aI32042301
aI32092411
aI43041701
aI42082301
aI32036111
aI37151201
aI32016411
aI51016901
aI50160021
aI31100101
aI44220701
aI51010151
aI37081601
aI11010301
aI11068201
aI44101111
aI37047041
aI23011221
aI22020101
aI37052201
aI42031501
aI42171001
aI41151401
aI33045401
aI36114001
aI50010171
aI33045701
aI32053911
aI42120401
aI21020471
aI62010401
aI43021601
aI35054631
aI53010701
aI36014801
aI44222601
aI34040201
aI15021641
aI33051701
aI12070971
aI32072611
aI44011841
aI51079811
aI34110101
aI42019391
aI42092701
aI36021801
aI32036711
aI51020101
aI31073901
aI33018431
aI22113201
aI51013211
aI15021011
aI33032401
aI41121701
aI52262701
aI11055501
aI41031301
aI32027711
aI13103701
aI52013801
aI21020701
aI45100071
aI42019251
aI51040201
aI33072701
aI23012010
aI33092701
aI44104601
aI21060161
aI44101351
aI37041201
aI50060501
aI33072501
aI36012801
aI23012571
aI32092011
aI37033701
aI31074001
aI50030311
aI41174001
aI11110921
aI42041501
aI37037291
aI34030501
aI42171201
aI34102501
aI45012901
aI33035701
aI31127001
aI21030191
aI31081701
aI41015701
aI50220031
aI41111301
aI32037611
aI23010431
aI46011001
aI21015001
aI14092541
aI52040801
aI51090701
aI12010401
aI32022202
aI37037321
aI45070301
aI32122411
aI44004401
aI32043001
aI51116401
aI50051721
aI34017201
aI31030201
aI11059901
aI33111001
aI61010801
aI21140501
aI32029191
aI42019451
aI12130101
aI15090802
aI51020411
aI50120102
aI31129901
aI32017711
aI21080101
aI44012311
aI44001131
aI23042601
aI11050601
aI33118401
aI11051091
aI42019031
aI44111901
aI51019601
aI32131801
aI61015001
aI37037071
aI43140701
aI44011791
aI33076701
aI21014201
aI44001181
aI33013001
aI54010202
aI33068401
aI36012901
aI53293601
aI31082101
aI21014801
aI50230301
aI32100402
aI32025301
aI51060011
aI44032301
aI32028111
aI42062401
aI37082001
aI42174101
aI50120161
aI14013461
aI33078201
aI34082401
aI35050801
aI32073011
aI46020501
aI11086801
aI64010281
aI35054051
aI44106501
aI64010041
aI63010302
aI52014101
aI36016701
aI33019371
aI37053101
aI31125901
aI44180301
aI33044301
aI31124101
aI37037161
aI46050401
aI33044401
aI32018811
aI35014950
aI51130301
aI31183702
aI44082801
aI61015901
aI42173201
aI42015101
aI63010211
aI61012401
aI11121001
aI32054311
aI22115801
aI33055601
aI41016101
aI51010551
aI51017301
aI14243151
aI21022001
aI33092801
aI34102101
aI44012051
aI33018311
aI32025201
aI51100101
aI37011601
aI41100401
aI50070201
aI14030301
aI44150701
aI44100801
aI42103201
aI31195701
aI44018001
aI52022201
aI32084411
aI13013501
aI37052501
aI35074561
aI45030521
aI36016201
aI31021401
aI43101401
aI34041101
aI61070901
aI44008801
aI51017901
aI32054411
aI23120101
aI23012111
aI12140901
aI43120301
aI34150901
aI14053591
aI13100102
aI44182001
aI32042401
aI35061501
aI43122301
aI36050601
aI50120291
aI34151001
aI33021501
aI13350301
aI32083711
aI51107301
aI22022701
aI41072301
aI42031201
aI11080601
aI33075801
aI61032801
aI44132501
aI41033601
aI33023401
aI42032601
aI54010001
aI44137101
aI42019471
aI15050104
aI41021601
aI33018681
aI41016501
aI50060161
aI31092801
aI32065011
aI32054011
aI23010221
aI53231101
aI61018701
aI44061601
aI13054401
aI13014101
aI32109021
aI34022801
aI42101301
aI33094701
aI12105301
aI50260031
aI43012101
aI22116501
aI43013201
aI42072101
aI33018421
aI31061501
aI51190201
aI44102801
aI11100591
aI37037271
aI31129401
aI41091601
aI32013501
aI33030401
aI21020771
aI21014301
aI33034601
aI42062701
aI50270041
aI23010811
aI37021901
aI65013061
aI51163101
aI32092511
aI52013401
aI37121601
aI23012591
aI33095201
aI11070991
aI37057091
aI23062601
aI51186401
aI33014001
aI51015601
aI44009201
aI41011161
aI43140201
aI50120151
aI51130010
aI31127501
aI13032901
aI42019361
aI44014001
aI11055002
aI31050301
aI23053301
aI15020104
aI44006501
aI12140722
aI21016001
aI44009401
aI36100251
aI11050402
aI53032801
aI33023701
aI53280501
aI42112601
aI42019431
aI12140761
aI44222201
aI13082201
aI34021801
aI13062601
aI11051211
aI46022501
aI34051901
aI21010821
aI37037091
aI41153101
aI36015801
aI37167061
aI44136201
aI33051201
aI32053411
aI37042001
aI11140931
aI37097051
aI51068501
aI31126601
aI41153201
aI33018541
aI37081101
aI36012401
aI46021201
aI35022401
aI41102301
aI42071801
aI64011301
aI44104501
aI65010207
aI13064201
aI44080801
aI33040401
aI44011381
aI37035501
aI36011901
aI51130011
aI32132711
aI11060303
aI42062101
aI32111101
aI13063201
aI32029251
aI44011831
aI33016701
aI33078601
aI61012801
aI51029621
aI45020221
aI41016401
aI43072601
aI15100860
aI50031601
aI15011561
aI44014401
aI36028311
aI41052001
aI23033501
aI33033101
aI44111201
aI50050111
aI31194301
aI44001831
aI42051801
aI43013501
aI41091301
aI21023301
aI36080161
aI31052001
aI44001441
aI13024001
aI13025201
aI13351302
aI35094521
aI14010101
aI45061201
aI32029541
aI51010091
aI32020101
aI21022401
aI12010821
aI41131301
aI32043611
aI14011301
aI33033501
aI42040801
aI35024701
aI33049501
aI44138701
aI37077031
aI33092001
aI21021901
aI44123001
aI33035101
aI45012501
aI41042401
aI15020941
aI15010701
aI42018801
aI41017401
aI34017501
aI33093001
aI32029021
aI42072301
aI65230131
aI43091301
aI43061201
aI61041701
aI45010561
aI33019411
aI53011501
aI32075011
aI43042101
aI51019921
aI11071101
aI33049601
aI14011601
aI35050321
aI33100801
aI12040601
aI46022301
aI44006901
aI50060111
aI42172601
aI31114601
aI61017001
aI35051302
aI44107101
aI44211601
aI33055801
aI52014201
aI41151501
aI61014001
aI32072511
aI33031101
aI33046901
aI43082801
aI50090501
aI34021101
aI42071201
aI46030201
aI35034481
aI44071901
aI44013801
aI37112201
aI32107011
aI14013741
aI35064221
aI32105311
aI51020081
aI41012301
aI44008301
aI62040101
aI23011771
aI33055701
aI32063511
aI33046401
aI35054091
aI32010101
aI31060202
aI31092101
aI33062901
aI21070601
aI32015811
aI44162601
aI53041601
aI45010351
aI44151601
aI50120901
aI37027151
aI44012381
aI33018501
aI31172401
aI33021301
aI15010011
aI65010901
aI33047701
aI33041071
aI32012201
aI42018701
aI33019251
aI31128701
aI44103201
aI33092101
aI45010611
aI43092201
aI44084201
aI37130801
aI32043201
aI32016711
aI33013601
aI61012701
aI22113401
aI34018801
aI62141501
aI61091101
aI37147071
aI14081501
aI53320101
aI33017501
aI61050701
aI14012101
aI32016611
aI50120221
aI44012341
aI51015921
aI51010911
aI32108011
aI53014201
aI21130401
aI33079001
aI51013401
aI52031201
aI44011681
aI51012102
aI33019421
aI45010701
aI33018321
aI32105411
aI21031401
aI46120101
aI44201401
aI33100701
aI34014001
aI44162301
aI34101701
aI31165101
aI44008001
aI37100701
aI41010101
aI12043701
aI32017311
aI37177011
aI37037181
aI31115001
aI32025001
aI65010404
aI21070901
aI32082301
aI41152901
aI50030251
aI22020501
aI33019321
aI50350021
aI21110601
aI21100601
aI42019121
aI43011901
aI21010921
aI44116501
aI51019101
aI42019181
aI53011001
aI51010281
aI51073101
aI44105401
aI44051801
aI33013201
aI51147201
aI36010601
aI11069701
aI44224001
aI11082201
aI62120601
aI51109981
aI33034901
aI44132201
aI62013401
aI11051151
aI21120131
aI32082701
aI35060171
aI44134601
aI61016501
aI64020201
aI11078501
aI50310011
aI33018301
aI63010221
aI44001421
aI51040211
aI32052201
aI33095901
aI51150411
aI45011901
aI51128901
aI37057151
aI34011401
aI51013101
aI41081201
aI52040601
aI44019701
aI51078901
aI44020701
aI32022501
aI21060901
aI45050111
aI44000802
aI34170801
aI32111001
aI65010201
aI32082601
aI44152401
aI35054101
aI33019301
aI35013601
aI44040601
aI50130201
aI14010402
aI61015701
aI44140501
aI41083101
aI35013001
aI33094001
aI33035901
aI45030101
aI44200201
aI37080801
aI41019201
aI32034701
aI33018801
aI50020601
aI50060701
aI51017201
aI44113301
aI33045201
aI12041081
aI44071701
aI46020601
aI36014301
aI21010781
aI32037911
aI50280101
aI51079101
aI11061121
aI34120201
aI35090201
aI44110491
aI12111071
aI51030101
aI50060601
aI34015001
aI37047061
aI51016801
aI44032501
aI53293701
aI33018661
aI32029371
aI46180101
aI44222001
aI53015201
aI44011411
aI44142301
aI12042201
aI33013901
aI11081801
aI46031701
aI44181101
aI42033501
aI15030103
aI33032301
aI51100031
aI23019991
aI35044261
aI31152801
aI33018641
aI21090091
aI32121311
aI32084611
aI44011651
aI32010301
aI50010131
aI52230401
aI33018181
aI14083291
aI65010481
aI41111801
aI45030451
aI43070402
aI42019001
aI37057011
aI21031601
aI33054301
aI44012111
aI35010102
aI51088201
aI21010971
aI42017901
aI35071601
aI32093511
aI33020701
aI37064001
aI12100651
aI37097021
aI64050201
aI37027121
aI44142401
aI33016001
aI44151901
aI44181701
aI33045801
aI15012011
aI31126801
aI21020671
aI33053301
aI21016901
aI37180301
aI33041041
aI43011301
aI61012501
aI51012202
aI15011041
aI44180401
aI32029341
aI42121301
aI34014701
aI41012701
aI32019021
aI35060401
aI23010321
aI44135001
aI44131291
aI44021901
aI51096311
aI35013101
aI34132101
aI51101311
aI11058301
aI33022701
aI33091401
aI44001091
aI51091002
aI34170301
aI32040101
aI32074511
aI37036701
aI37050101
aI50340301
aI32029121
aI51010661
aI33016501
aI21010201
aI61110101
aI33065201
aI44001221
aI37057081
aI44062801
aI32019211
aI34052501
aI13014701
aI34017401
aI32081101
aI53011401
aI34061101
aI36098101
aI32105111
aI35054031
aI61017901
aI31051601
aI42018401
aI44139601
aI53051001
aI53012201
aI41011181
aI44012171
aI44104901
aI33062401
aI41052601
aI21013501
aI51011501
aI33095401
aI44012501
aI12070201
aI37130901
aI33064101
aI32084211
aI33047801
aI64030161
aI43016501
aI11171021
aI51060201
aI44001711
aI13018101
aI35054991
aI37011501
aI42032101
aI36075101
aI62012301
aI32109061
aI45012001
aI32045611
aI34102001
aI33046801
aI33071901
aI13063601
aI44001231
aI13024301
aI44001341
aI43019101
aI44135901
aI31125201
aI32034401
aI21050131
aI32012701
aI44031801
aI43021801
aI32042201
aI12010701
aI46050301
aI11070891
aI12034701
aI42019271
aI13055001
aI13073502
aI35011502
aI31172701
aI33069001
aI13011201
aI51028401
aI51067501
aI36030501
aI44006801
aI37087091
aI21040161
aI61015501
aI33052501
aI42018601
aI31181701
aI13053401
aI22080701
aI42019131
aI41171801
aI41011801
aI35014621
aI44161101
aI44012401
aI44032701
aI12070751
aI31073401
aI32039111
aI37037131
aI53260701
aI35023841
aI51118431
aI44081801
aI62090101
aI42120701
aI32133711
aI34090501
aI43016701
aI53040701
aI21031201
aI35093821
aI61030201
aI34140901
aI11050971
aI33076011
aI41017101
aI61071501
aI41152001
aI41017501
aI50120501
aI64010291
aI32016211
aI32032101
aI41033901
aI51011011
aI44138501
aI51139971
aI44012441
aI33018391
aI52020601
aI46040301
aI41052701
aI61041501
aI34021401
aI32041501
aI36041701
aI46022901
aI34091901
aI32022301
aI14052111
aI21014901
aI33032601
aI44115001
aI41011311
aI32134011
aI42060201
aI14081301
aI51030601
aI44152701
aI11020901
aI42031801
aI22080301
aI44190801
aI44115801
aI62013701
aI42053501
aI36061001
aI23011881
aI13071601
aI53080301
aI32132911
aI41021401
aI33079601
aI13093401
aI34090201
aI43122501
aI33032201
aI62031101
aI15030109
aI41011121
aI52032701
aI43014301
aI32029331
aI34020103
aI11060721
aI42019411
aI51048901
aI31112801
aI43061001
aI15070103
aI11100571
aI33018490
aI32082001
aI51010331
aI32091601
aI32091901
aI50220011
aI44113101
aI22050201
aI42130301
aI41111101
aI42019141
aI42041701
aI33015501
aI14092971
aI34023901
aI51090281
aI37057161
aI21023401
aI21011701
aI37122101
aI32035001
aI31052101
aI32052611
aI45130101
aI36074301
aI21030221
aI53012101
aI44200601
aI36014201
aI11083701
aI44107401
aI33112001
aI43022001
aI35014731
aI21015601
aI44082101
aI37027191
aI33073501
aI44131241
aI35020101
aI44001551
aI33014301
aI62020901
aI36015201
aI44001121
aI44134701
aI42071401
aI50031711
aI50340061
aI14080801
aI33078801
aI31090201
aI42040501
aI31182701
aI41134201
aI43011201
aI51014501
aI44109401
aI33055901
aI61018401
aI32037511
aI37091301
aI34100401
aI51090501
aI43052301
aI44224301
aI61013301
aI44001841
aI35040502
aI33091601
aI32023801
aI32029461
aI37087181
aI34101901
aI32039011
aI32029181
aI33018371
aI33091701
aI32021901
aI31128501
aI42091701
aI36091001
aI36050501
aI33079301
aI61080301
aI32029351
aI32064911
aI32029451
aI13033501
aI23012581
aI33010501
aI14061001
aI35040401
aI42171101
aI34102601
aI35012001
aI42151001
aI14023261
aI42072801
aI35014191
aI51010802
aI23022501
aI44150301
aI32072211
aI51015991
aI44134501
aI44123701
aI31115601
aI42150401
aI32012501
aI61030301
aI51030051
aI14060501
aI44121801
aI37057121
aI21023901
aI33068801
aI33096201
aI62100401
aI32062411
aI15100107
aI41181301
aI51068001
aI62011501
aI44012301
aI50050301
aI44161501
aI44007001
aI37027081
aI52220401
aI37034201
aI44109701
aI51163201
aI34130401
aI52021101
aI50051011
aI21020461
aI44171801
aI32029311
aI32051901
aI51168101
aI51143601
aI44021101
aI22080801
aI32063911
aI52260101
aI36042701
aI61011061
aI33015701
aI32091201
aI51168301
aI51060031
aI35051101
aI50060801
aI32029391
aI35054061
aI31127801
aI41152801
aI33065901
aI23128311
aI36022001
aI36100901
aI46060201
aI23112131
aI46021301
aI62140601
aI41012201
aI37057001
aI21014001
aI13063901
aI43063301
aI44011671
aI51019961
aI41152501
aI34060501
aI41134401
aI44001201
aI42062901
aI15021911
aI37067091
aI45060311
aI33070201
aI37160601
aI41011191
aI43032501
aI31172901
aI21022501
aI33094301
aI31183502
aI61019401
aI33018351
aI43091101
aI33018151
aI33052101
aI34015501
aI33052901
aI43120101
aI13072501
aI33054401
aI31127201
aI42173501
aI32054611
aI14022361
aI34016301
aI44122001
aI32043911
aI33018141
aI37041101
aI43041001
aI15041571
aI44181401
aI42052901
aI51099001
aI32039151
aI42102101
aI21010791
aI41018501
aI21030251
aI51116301
aI35024511
aI41016601
aI21016501
aI31115401
aI33013701
aI32064211
aI41014301
aI52240301
aI21022701
aI31182801
aI45100061
aI36112301
aI50070111
aI31194601
aI44014601
aI15051761
aI11060202
aI13032801
aI33041091
aI13072001
aI21040121
aI46030901
aI34051801
aI32039041
aI41082001
aI36015601
aI44510102
aI32081401
aI32028311
aI11011031
aI51129991
aI15221741
aI37027101
aI23012531
aI21060301
aI37040601
aI32017511
aI44015301
aI37040801
aI41173401
aI32036211
aI13082601
aI33063001
aI44131401
aI31126101
aI32045311
aI51020561
aI34050501
aI37023101
aI61051001
aI41022601
aI11068901
aI32018011
aI31182401
aI34016701
aI31128001
aI43016601
aI34022901
aI45100401
aI31116301
aI32022801
aI42016901
aI46070401
aI41153301
aI35051301
aI42101601
aI51010221
aI46022601
aI31194401
aI13053801
aI37036301
aI32019061
aI32039121
aI44019301
aI44220601
aI12094801
aI34081501
aI21010741
aI33100901
aI53014601
aI35014051
aI51011091
aI14050401
aI34150401
aI32112311
aI45030371
aI51016601
aI33015101
aI43062801
aI62013201
aI44007601
aI65010202
aI33019221
aI22020601
aI37067071
aI33049801
aI15032061
aI43060201
aI41021201
aI44010801
aI32109011
aI44023101
aI11121201
aI41014201
aI37053801
aI31152701
aI31129001
aI33018621
aI44160401
aI22080601
aI44001701
aI43013301
aI32014001
aI46080101
aI22051201
aI51150011
aI44086001
aI32111811
aI51180231
aI37037101
aI23010311
aI34018401
aI51036311
aI32022001
aI42111201
aI32082401
aI37021201
aI44108301
aI44085201
aI35064801
aI32013101
aI33054201
aI37037011
aI44172201
aI44160701
aI45010361
aI32062301
aI32021401
aI53240101
aI32053811
aI33082701
aI32029381
aI22060081
aI42011401
aI51029611
aI15010891
aI41121501
aI33019341
aI32104011
aI51016001
aI62011101
aI14052141
aI35023961
aI37167031
aI44021201
aI43121101
aI50180121
aI32090801
aI34012301
aI42019601
aI37034401
aI42041801
aI41081601
aI35044061
aI50240031
aI14072571
aI44061401
aI44116701
aI22042101
aI64010331
aI44030601
aI44020401
aI45080201
aI31129301
aI31093001
aI50060121
aI31133801
aI44113001
aI14083231
aI50080401
aI50180301
aI45080171
aI51011201
aI44011711
aI15251901
aI34015201
aI44141401
aI36011801
aI37041001
aI23022301
aI33016901
aI33061031
aI21020761
aI22116401
aI42017201
aI51120401
aI42172101
aI32092111
aI50170031
aI44124501
aI23050311
aI33045101
aI44011081
aI31074401
aI41018401
aI61019501
aI43019301
aI32063811
aI61092801
aI41012801
aI41071201
aI22113901
aI23010211
aI35044081
aI44017201
aI51019951
aI31194901
aI12230861
aI46031501
aI42101401
aI32019161
aI50120231
aI21140201
aI50050801
aI42071901
aI32014101
aI32044711
aI43010411
aI50050121
aI43051201
aI51073401
aI51020221
aI44071401
aI37071301
aI33043201
aI61014201
aI37111301
aI33017301
aI62013301
aI15030203
aI32042801
aI41030401
aI61014101
aI32092711
aI44011201
aI52021701
aI32063011
aI33042701
aI42172301
aI23018221
aI44105201
aI34032401
aI44107301
aI44181301
aI33019451
aI43132101
aI31183901
aI13033201
aI44171301
aI32045511
aI32039071
aI35043931
aI43015901
aI34024401
aI44001751
aI21110111
aI50030241
aI43014501
aI44134301
aI32041701
aI43082101
aI31128101
aI44101241
aI35023851
aI32083611
aI12045401
aI41101801
aI43063101
aI44061001
aI43031301
aI45060241
aI21020581
aI34040501
aI44012251
aI46020801
aI33046301
aI42071501
aI41112001
aI31164901
aI33095501
aI53251001
aI61012901
aI62130401
aI36014601
aI51016031
aI62030201
aI51017101
aI41133301
aI42019101
aI50250051
aI33018901
aI32026101
aI32092911
aI50090701
aI44012161
aI44180201
aI32102801
aI32029411
aI46031601
aI44001561
aI61011001
aI32064411
aI37070101
aI11069801
aI36090421
aI23029981
aI21050301
aI34011001
aI33044801
aI32132511
aI34090301
aI53070701
aI42052001
aI44051701
aI51036401
aI44136101
aI61011051
aI12020401
aI33047401
aI42150701
aI51083201
aI11010201
aI44011571
aI50120131
aI44012631
aI44011461
aI51010981
aI51015501
aI44111101
aI44107001
aI62014301
aI44220401
aI44001451
aI12130901
aI31051901
aI34012901
aI34017901
aI33034801
aI13052101
aI44131181
aI32037311
aI61042001
aI37077061
aI42022101
aI37035601
aI35024691
aI34150501
aI44123301
aI63010901
aI52032501
aI13063806
aI31164401
aI44139401
aI32039081
aI13073601
aI62012401
aI31194501
aI33040201
aI44081101
aI44152601
aI22041901
aI51010251
aI45010541
aI11050611
aI34018301
aI50080031
aI44131201
aI44101381
aI43020501
aI61015101
aI62012901
aI42174001
aI37117011
aI32107211
aI44101271
aI11071161
aI33081601
aI33019211
aI41018301
aI51150301
aI14111201
aI41150101
aI34018201
aI62030301
aI32074111
aI34110102
aI11085901
aI32012301
aI61016201
aI33063401
aI44211701
aI51170101
aI41052801
aI33023501
aI33053901
aI32075111
aI42130401
aI21013001
aI32044911
aI42173401
aI33034501
aI35081101
aI44152001
aI44221501
aI41016201
aI43081001
aI43015301
aI33097301
aI44012511
aI36021901
aI41040401
aI43040101
aI35071401
aI32134411
aI44011631
aI43022301
aI12030301
aI44131011
aI44111801
aI41133901
aI51050711
aI44133201
aI41011111
aI44001071
aI21070131
aI42101501
aI44011001
aI44091501
aI21080191
aI35034451
aI33019351
aI33041081
aI35023861
aI44171701
aI33068501
aI43019601
aI65010401
aI13052001
aI50060151
aI43130201
aI61062701
aI45100501
aI44011041
aI44005201
aI44012221
aI44018101
aI12042301
aI13015501
aI64040901
aI37077081
aI14011401
aI44220901
aI45010411
aI32053211
aI32020302
aI35054211
aI41041501
aI37087151
aI34160901
aI32104511
aI32084311
aI23010341
aI21070191
aI41081901
aI34120401
aI61081601
aI35022601
aI33013101
aI23019941
aI15030301
aI21080151
aI11071271
aI50070131
aI35014780
aI44001571
aI32017911
aI44072101
aI44151701
aI44114401
aI50010111
aI33031701
aI21016301
aI23080211
aI34022201
aI62070901
aI43042701
aI51028201
aI35023891
aI43015001
aI61090401
aI42033001
aI21015101
aI32033301
aI35094971
aI43052001
aI37097091
aI37081701
aI32036411
aI44161601
aI43090901
aI32134811
aI14112271
aI44104701
aI13106501
aI15222051
aI32013901
aI37034501
aI32015001
aI50090301
aI44113901
aI34102801
aI44115501
aI32019111
aI33074801
aI44031701
aI50050061
aI32021001
aI34031901
aI32023901
aI43010311
aI37035001
aI51098201
aI44001001
aI37067111
aI31091201
aI44131161
aI32120901
aI21120151
aI44083701
aI21030211
aI32024501
aI41130101
aI44012591
aI45030311
aI37036601
aI31164601
aI50070601
aI32122511
aI51030061
aI61031001
aI43112201
aI50010061
aI44081501
aI44011021
aI37082501
aI33061601
aI45040141
aI43019901
aI44116201
aI43083401
aI32102201
aI32101701
aI33033901
aI44131171
aI61060501
aI42072201
aI44136901
aI11065701
aI44116301
aI32054711
aI52020401
aI45050701
aI44004301
aI43010111
aI61030901
aI33014501
aI15061791
aI34141201
aI14103491
aI35013701
aI42111801
aI15020601
aI43016401
aI37187051
aI13023701
aI31113601
aI33066551
aI46022401
aI61019201
aI36080271
aI37150401
aI35060801
aI44101341
aI32132811
aI41111601
aI37160801
aI14013691
aI37067081
aI33019391
aI12072802
aI34082501
aI33019471
aI13012901
aI50250041
aI43031001
aI34120801
aI32103301
aI33014901
aI21140091
aI50081001
aI44102501
aI34120601
aI32019121
aI37037261
aI33061901
aI44139701
aI37041901
aI62014401
aI43132001
aI31115301
aI32101301
aI44008701
aI33064301
aI31142801
aI64010802
aI14082911
aI36112201
aI46040201
aI11011101
aI33093901
aI32026901
aI32043311
aI11071131
aI31031801
aI33063801
aI33018231
aI44091301
aI41112301
aI35052101
aI32024001
aI62012701
aI33090902
aI44011751
aI61014601
aI34031201
aI32034201
aI32023101
aI34062301
aI22070201
aI45070501
aI15010971
aI21080701
aI22116201
aI41163301
aI36060901
aI34024101
aI21020681
aI34022401
aI34070601
aI65230111
aI62130301
aI44136701
aI32101801
aI45080191
aI43062101
aI13103901
aI43014801
aI43015701
aI41019301
aI41092601
aI31183401
aI41051601
aI43041101
aI61014301
aI53016401
aI43010211
aI32036511
aI43018001
aI32019031
aI12152101
aI11062101
aI43112501
aI32103001
aI33063201
aI43042301
aI21024101
aI31081801
aI15010105
aI34102701
aI42021301
aI33043801
aI37131801
aI44012451
aI43083201
aI32013701
aI44040401
aI37127041
aI32120401
aI51015871
aI21010831
aI36043701
aI11065801
aI33112401
aI41032601
aI51120511
aI32093111
aI43031601
aI32018311
aI44011991
aI34011701
aI21110901
aI36073801
aI51070041
aI36110401
aI37067001
aI44020901
aI41101301
aI32061301
aI44161901
aI61031801
aI32104211
aI33090501
aI45070091
aI45012701
aI21020551
aI44133901
aI32121611
aI32083211
aI34081801
aI51040101
aI45070111
aI44001851
aI41073601
aI43061501
aI14083541
aI44011211
aI50420201
aI44019001
aI42072901
aI36045001
aI51014401
aI13015201
aI41011131
aI51096411
aI37037081
aI42061601
aI44137501
aI43010711
aI51016021
aI51120102
aI36090361
aI35022701
aI34013201
aI34070501
aI33047901
aI37061901
aI32029361
aI42021501
aI44124801
aI31195501
aI51130201
aI44132301
aI41033701
aI33093501
aI14083641
aI37147151
aI62030701
aI36020301
aI36111701
aI42121501
aI46021901
aI41181401
aI31142401
aI33081501
aI51016011
aI42071301
aI33079701
aI32134311
aI32053611
aI65010211
aI32103201
aI41134301
aI36090441
aI14020501
aI44172101
aI33076801
aI43015801
aI65901051
aI44091701
aI62013601
aI44152101
aI11070811
aI31163501
aI32121211
aI35013891
aI33018341
aI33018111
aI42019701
aI44142201
aI23052801
aI32043811
aI37117041
aI32063211
aI44116601
aI21023101
aI32063311
aI31124801
aI41143401
aI33064501
aI31091001
aI13053101
aI32040202
aI41071601
aI33018691
aI33079501
aI50160051
aI43042501
aI50260041
aI51090031
aI33024201
aI50160041
aI37020101
aI35071501
aI33019431
aI53013301
aI51036321
aI37111601
aI42010101
aI34140401
aI42102401
aI52270201
aI35054021
aI33018721
aI41101501
aI37027211
aI51011101
aI13083001
aI34100301
aI33090701
aI13041601
aI44210601
aI15053221
aI37027111
aI44105301
aI33053201
aI41031801
aI31092701
aI61016301
aI32105911
aI44012331
aI44124201
aI36014401
aI32083511
aI32029581
aI11020503
aI32025701
aI32038711
aI37027251
aI50330101
aI46031001
aI32032501
aI32134511
aI14072251
aI22070501
aI35023901
aI31173501
aI36010271
aI32062101
aI41093001
aI44211401
aI44080701
aI37170301
aI13054801
aI53016501
aI35053991
aI12094101
aI37022401
aI32122211
aI34052701
aI53015501
aI32017111
aI65010431
aI43101001
aI34150201
aI13054001
aI61030501
aI35081201
aI41163101
aI44222901
aI42019291
aI44131701
aI23060111
aI34160201
aI31173601
aI44151301
aI15021091
aI44102901
aI33018471
aI44011391
aI42092501
aI41163401
aI33101001
aI44131191
aI43020901
aI37071001
aI37067161
aI45020801
aI44131051
aI42120501
aI33082801
aI32083911
aI22030501
aI32083411
aI15100105
aI32131101
aI14073221
aI31050901
aI33064201
aI37035301
aI22081101
aI31092201
aI44102601
aI32037211
aI32016311
aI51013001
aI44108701
aI32029211
aI31164801
aI32135011
aI23050431
aI31114301
aI65901061
aI33013401
aI23016101
aI21080401
aI32054111
aI37127081
aI37131401
aI44108901
aI41152201
aI51011601
aI37187021
aI36080701
aI13105901
aI45020241
aI12231001
aI32093611
aI11020603
aI45040191
aI36020501
aI33061051
aI42062301
aI51030711
aI33015401
aI35052601
aI45100201
aI34062001
aI36100191
aI44001631
aI34032001
aI14012491
aI50030231
aI32014801
aI44150401
aI61014801
aI42171801
aI32103911
aI33017101
aI51010241
aI52021301
aI36080241
aI23012621
aI51190101
aI23012881
aI36010901
aI13064301
aI12140631
aI41101401
aI34091201
aI23052181
aI42061501
aI37087211
aI46021001
aI61080201
aI45060182
aI15021871
aI32072311
aI42022001
aI62011901
aI23012611
aI21014701
aI42017101
aI51016091
aI42019281
aI52013601
aI41019401
aI33023901
aI37180101
aI44222801
aI42091201
aI32019191
aI31112701
aI35014751
aI61014401
aI31202401
aI42041101
aI34090901
aI13010101
aI21030271
aI32030101
aI51018601
aI43052601
aI33111901
aI53014901
aI32029261
aI51020051
aI13052501
aI31164301
aI33042901
aI44120701
aI32018411
aI33046701
aI13023501
aI32070801
aI45010641
aI44105901
aI31173101
aI50020111
aI32029421
aI44001402
aI42063001
aI44011251
aI44062401
aI31200107
aI33061061
aI32110401
aI43041401
aI46022201
aI41101101
aI34132601
aI33018480
aI52033901
aI36060501
aI44161701
aI44160801
aI45100101
aI11056201
aI33018361
aI32064011
aI45130081
aI42019381
aI44001771
aI44162001
aI21050121
aI32073511
aI50240041
aI53016301
aI32110102
aI51140021
aI32019051
aI44123401
aI44001641
aI51017501
aI50220021
aI50170041
aI21040151
aI61072601
aI21080161
aI44009801
aI14243311
aI51100021
aI33101701
aI34020501
aI32130801
aI44084101
aI44124101
aI37101501
aI12011041
aI36016801
aI51090051
aI41111401
aI32062711
aI32025602
aI11051202
aI21022601
aI65010421
aI45050901
aI50400031
aI22112301
aI32107911
aI32035811
aI33081301
aI34020801
aI33092201
aI33072301
aI11030201
aI44223301
aI37047021
aI50340051
aI44223801
aI41141101
aI44131121
aI13062101
aI13034001
aI35024581
aI33078001
aI11010703
aI13010491
aI44101311
aI31180207
aI41132201
aI44131111
aI35060601
aI32051301
aI44221701
aI44211301
aI53280301
aI51090061
aI36015401
aI41073101
aI32052101
aI36043601
aI12020781
aI31195301
aI44050302
aI42032501
aI32014701
aI22114001
aI44133801
aI50040061
aI13105401
aI42014601
aI32039061
aI31061601
aI53032201
aI32029241
aI42033601
aI32107411
aI32022901
aI61018301
aI41142001
aI32103101
aI45140071
aI64011401
aI32112111
aI42173001
aI51011001
aI35054411
aI36113901
aI21100121
aI37034701
aI11011001
aI50120281
aI44012141
aI45020141
aI34081001
aI32061701
aI34040901
aI36114801
aI11070601
aI32044311
aI32105511
aI32016811
aI45010551
aI32131701
aI65400241
aI51160011
aI23012601
aI45010511
aI22032501
aI44001741
aI12030701
aI50340401
aI42111001
aI42019371
aI51011301
aI62050201
aI46080201
aI13032601
aI32041302
aI42102301
aI53015701
aI35040801
aI37140701
aI51010181
aI41142701
aI33079201
aI37087241
aI43018101
aI33060601
aI32107811
aI35060181
aI32102301
aI37040501
aI37137061
aI11081701
aI34041301
aI22022002
aI31082201
aI50120211
aI41142401
aI36091401
aI45012601
aI32081301
aI43014401
aI50061201
aI53031001
aI50120181
aI13018901
aI44221201
aI46070201
aI44141001
aI33079801
aI46040101
aI50070141
aI43082701
aI23010411
aI37140601
aI32036611
aI46060301
aI45090061
aI41010901
aI53032301
aI35071701
aI51118611
aI42041001
aI12070891
aI41073901
aI44001461
aI33056101
aI32109101
aI61072401
aI15080101
aI43083001
aI12034601
aI34061501
aI21140111
aI22115101
aI61019301
aI34015901
aI62091101
aI31142301
aI32082811
aI61052201
aI32031901
aI36078201
aI44011371
aI36073301
aI44112601
aI34130201
aI37027301
aI43031501
aI32038011
aI43072301
aI44101301
aI21010801
aI13053301
aI13102101
aI32029401
aI42081101
aI44107901
aI31181901
aI33018741
aI31191901
aI44011171
aI37037241
aI35012301
aI43022201
aI21140701
aI31114901
aI12013801
aI34060601
aI33092601
aI44142701
aI31129701
aI44000201
aI32100601
aI43080301
aI51140091
aI11151261
aI33065301
aI42063101
aI15025021
aI41083201
aI44012641
aI14032201
aI32071101
aI33046601
aI61071001
aI62110701
aI42053301
aI37117021
aI35021302
aI46022801
aI11021241
aI37034101
aI44062601
aI32027611
aI32029521
aI34060201
aI50170071
aI51015951
aI14073731
aI33015601
aI32015101
aI21020661
aI44033201
aI44021601
aI34101001
aI37112301
aI32052911
aI33048301
aI41019801
aI37122201
aI35064931
aI44011231
aI36041001
aI43052401
aI44012201
aI43091201
aI43071801
aI43140501
aI33046101
aI34023301
aI43051001
aI43022401
aI37157041
aI37071501
aI51188001
aI41143201
aI33043101
aI33070101
aI13013901
aI36115001
aI12140851
aI37121701
aI44133001
aI31152401
aI50060101
aI61018601
aI22115701
aI52010701
aI65010206
aI44101901
aI51197811
aI41018701
aI33033401
aI37054001
aI31140106
aI44136501
aI21010951
aI33094501
aI31114701
aI32075211
aI51036501
aI33075701
aI32024301
aI33021001
aI51053201
aI31125101
aI34024001
aI37022001
aI45050601
aI31129601
aI13104401
aI44121201
aI51136201
aI43140101
aI21070141
aI34032101
aI21060701
aI44001301
aI13017301
aI31195401
aI14072441
aI41143101
aI37063601
aI14013381
aI22022501
aI37081501
aI51078911
aI44011531
aI42019481
aI44135201
aI34052101
aI41017701
aI46190101
aI15080103
aI32019181
aI13055401
aI37022101
aI42041901
aI31184101
aI36074901
aI34141601
aI50150101
aI35010401
aI37087061
aI32029321
aI33100401
aI62014001
aI34018601
aI33111601
aI32131401
aI44001411
aI46020201
aI23012401
aI34031701
aI33095801
aI32029221
aI22032901
aI33042501
aI13041901
aI34052301
aI44137601
aI44001511
aI34031601
aI13052601
aI51015811
aI42103001
aI35021702
aI51098301
aI35050101
aI42072001
aI43080203
aI44050801
aI41152601
aI37057111
aI21023001
aI34014502
aI51090601
aI14053791
aI41162501
aI33071801
aI44011821
aI51140081
aI62030901
aI44124301
aI50270031
aI42102801
aI34018101
aI13019401
aI51030021
aI42033901
aI32033901
aI44011241
aI64041001
aI31194701
aI33018191
aI34013401
aI37071201
aI44132901
aI37147121
aI32130401
aI33014801
aI51010051
aI33093301
aI53261101
aI51050301
aI51014331
aI41101901
aI36040601
aI22033001
aI34151101
aI65020111
aI35030801
aI44001281
aI61041201
aI41082301
aI32026401
aI33096101
aI21010771
aI43043101
aI44012391
aI41017001
aI37041701
aI37011201
aI32120601
aI32093211
aI33073801
aI43012401
aI13071801
aI44011091
aI41018601
aI21140121
aI13016401
aI35014046
aI44122601
aI44134101
aI44120901
aI36111201
aI33101401
aI21030311
aI41073501
aI51088101
aI51140121
aI41172601
aI37082601
aI44012361
aI37027241
aI21080131
aI37057191
aI50050141
aI14082231
aI44224501
aI44011541
aI23033401
aI44138401
aI33032101
aI33082601
aI36074101
aI31011901
aI41015101
aI44104401
aI37067121
aI44139501
aI32021302
aI36110281
aI31113801
aI33019361
aI44137201
aI51090071
aI41012001
aI53091301
aI21020571
aI51130501
aI61020601
aI32130701
aI33018221
aI51140401
aI32029011
aI34070201
aI43110201
aI21090061
aI33065801
aI13105101
aI46180201
aI45020301
aI44107201
aI34131801
aI63050021
aI44139301
aI31183301
aI33091801
aI32029271
aI34041001
aI33072901
aI44011971
aI36074601
aI21013701
aI43032101
aI34082701
aI61017601
aI43015401
aI33075201
aI32033101
aI37087221
aI36051001
aI22031901
aI53280801
aI41072901
aI44131281
aI44085001
aI13011902
aI32061101
aI21140131
aI33064001
aI53040501
aI62110301
aI41181501
aI21015501
aI35014141
aI22040901
aI42082201
aI34102201
aI34050401
aI44011441
aI42019421
aI44033001
aI34052201
aI21015801
aI35023201
aI32121911
aI35054071
aI12070941
aI33096301
aI51016051
aI33081401
aI45030511
aI44112901
aI41162401
aI37080501
aI21040901
aI34061201
aI35084131
aI34010801
aI36014501
aI33111701
aI34016401
aI63010801
aI34090701
aI33016201
aI32064311
aI11140831
aI13019801
aI44011321
aI51120181
aI37037231
aI21080801
aI14011901
aI36015301
aI51160202
aI44107801
aI32121711
aI44082401
aI31113301
aI37047031
aI44011031
aI44032101
aI44141101
aI31173401
aI37110201
aI51143801
aI15030881
aI50130101
aI14073601
aI61018201
aI42020501
aI37071801
aI44123201
aI32071601
aI41041101
aI35014901
aI35024501
aI35014201
aI32023301
aI51010081
aI33018331
aI22060071
aI44012461
aI13032501
aI21020721
aI32074411
aI62140101
aI34131601
aI41092401
aI45010581
aI22050901
aI51030081
aI44115401
aI44071601
aI62021001
aI44120501
aI37117081
aI13064401
aI33064401
aI44001791
aI13054501
aI14103371
aI33065001
aI50030261
aI31182901
aI43080801
aI11083801
aI42071001
aI44132401
aI32073211
aI33062011
aI32134711
aI51058001
aI13082101
aI33033801
aI32104311
aI52241301
aI13033301
aI41051801
aI37062101
aI33018551
aI45013201
aI37167071
aI44016301
aI42102501
aI46021401
aI46040401
aI33041051
aI21100801
aI32020501
aI35034311
aI36041501
aI34082101
aI34031501
aI35080701
aI21020401
aI52041401
aI44001611
aI36111001
aI14112381
aI37101001
aI50300021
aI32035511
aI13026801
aI42041201
aI44012521
aI62061201
aI13083101
aI51028301
aI44115601
aI41022901
aI34091701
aI33091501
aI44122101
aI33072001
aI22021501
aI35051502
aI61015601
aI36073901
aI32084911
aI44001601
aI32122611
aI51030031
aI33034001
aI37063901
aI35013940
aI32104111
aI44104301
aI13011011
aI43111501
aI32054511
aI23018311
aI50070151
aI32052501
aI13055301
aI41033801
aI44033101
aI32018111
aI44170301
aI42011801
aI43041501
aI36110301
aI42121101
aI34061401
aI35014741
aI21060131
aI33018381
aI31194001
aI51197721
aI35054461
aI32061801
aI33018731
aI37087051
aI32017811
aI34019001
aI33074601
aI13041401
aI31115201
aI37157011
aI31173301
aI22050401
aI32022601
aI65281021
aI44130202
aI45032301
aI32061201
aI41134801
aI51010681
aI23050211
aI41102001
aI11050941
aI43013801
aI33018121
aI36051101
aI34023201
aI44004501
aI41073001
aI32109051
aI50070126
aI23018421
aI42052801
aI37034301
aI33054001
aI51068601
aI37080101
aI37137091
aI44120801
aI44123901
aI44103401
aI33110401
aI34010101
aI53031301
aI42092101
aI44080501
aI44009601
aI50180061
aI41131201
aI46130301
aI44011221
aI41110101
aI37087171
aI44153001
aI23022191
aI32092811
aI62010601
aI34032301
aI44162201
aI43018601
aI13015701
aI22115201
aI23042221
aI53080401
aI14093631
aI51010341
aI32023201
aI32074211
aI51016111
aI43019201
aI11056601
aI32106211
aI14110401
aI34040301
aI37047071
aI44101231
aI32036811
aI46110101
aI44001811
aI14033801
aI32028511
aI21031001
aI41173301
aI44101201
aI36090391
aI44032801
aI35054041
aI21050071
aI32053011
aI14040102
aI62100801
aI34015701
aI51140051
aI32121011
aI41181201
aI37027171
aI44102401
aI42061901
aI52272001
aI37077111
aI33096901
aI43103101
aI42052701
aI42081001
aI42033201
aI33011801
aI31182501
aI41015601
aI41014901
aI35023881
aI31194801
aI36060201
aI13054901
aI13016301
aI36044901
aI41019101
aI33097101
aI43019801
aI35091001
aI23118321
aI22116001
aI52030501
aI21010301
aI44115901
aI37090801
aI13053701
aI41017301
aI37077091
aI14113711
aI44001781
aI21140101
aI34100901
aI32039101
aI14022511
aI42033301
aI50300101
aI32103601
aI42082001
aI37137051
aI44152801
aI37087191
aI43091701
aI61032901
aI62070101
aI23010921
aI15011111
aI41161501
aI61101101
aI61017301
aI42072601
aI42019321
aI36100211
aI51165101
aI33068601
aI32061901
aI32043411
aI64010341
aI12230791
aI33101301
aI32022401
aI50330311
aI51010291
aI43050901
aI36014001
aI61011111
aI36050201
aI32100302
aI33070901
aI41019901
aI32108411
aI11071351
aI32093711
aI51140111
aI43040401
aI32108111
aI61041601
aI51015821
aI50070101
aI61018001
aI22115901
aI41061701
aI36068321
aI32121511
aI41082401
aI44161401
aI43042601
aI53252202
aI41133401
aI36041201
aI43130701
aI44224201
aI41161201
aI37070501
aI31115901
aI43081801
aI51066911
aI36100201
aI50370021
aI43071601
aI44011611
aI44019401
aI42019501
aI21020641
aI21060121
aI34021901
aI42010901
aI31114001
aI42033101
aI33073701
aI61020201
aI32024201
aI52231401
aI33076901
aI44109101
aI34061601
aI33095601
aI11081071
aI32019231
aI23080221
aI32084511
aI61071401
aI14240301
aI13014001
aI32032801
aI43092001
aI37057131
aI46070301
aI44012271
aI33056301
aI11131361
aI44001901
aI43070601
aI23016001
aI31163301
aI41092801
aI43080401
aI50121101
aI51136301
aI22021301
aI42019071
aI22022901
aI51040051
aI15030106
aI44008501
aI52271901
aI11050981
aI44139101
aI61020501
aI33111301
aI37127051
aI32102001
aI53050101
aI21080091
aI34016101
aI52033701
aI61070201
aI61017101
aI21010911
aI44081401
aI31163801
aI50170061
aI43060401
aI32012101
aI32029621
aI21040141
aI63010502
aI21020511
aI45090051
aI34060301
aI44013501
aI53016201
aI32101901
aI43111301
aI45020261
aI43100501
aI32045711
aI14080301
aI14050701
aI45080501
aI32083011
aI32131901
aI51068801
aI21010941
aI11080702
aI33074701
aI33110901
aI45061301
aI44011351
aI32019131
aI23128201
aI51015911
aI33015001
aI44061801
aI32074811
aI37037311
aI36114501
aI44112201
aI53013901
aI41022001
aI43070801
aI33065501
aI51140041
aI42140301
aI62061101
aI34015801
aI42101801
aI51130401
aI33071001
aI33024301
aI41019501
aI44104201
aI44124701
aI13063101
aI15070810
aI42019261
aI22091201
aI14083361
aI32104911
aI61080101
aI43083901
aI34120301
aI41043301
aI36110201
aI36111401
aI34080601
aI46100101
aI36031301
aI37077071
aI42011301
aI43014001
aI44001211
aI15100101
aI21120401
aI33064901
aI43060901
aI14100201
aI41163501
aI45040211
aI42111301
aI33041011
aI50030191
aI41163201
aI53260501
aI15101151
aI52240901
aI23011601
aI63010171
aI44085501
aI13016801
aI35051201
aI44142001
aI33032701
aI11051001
aI41152401
aI44090201
aI37087121
aI32064611
aI37157031
aI31195601
aI13055101
aI44012261
aI53090401
aI32081801
aI33096701
aI41041701
aI32111511
aI50030181
aI22114901
aI32015401
aI44220201
aI51020041
aI44172701
aI33048201
aI43018201
aI33013801
aI44011311
aI41016701
aI41015801
aI32082201
aI37107051
aI42093001
aI13026101
aI32101201
aI44116001
aI14083081
aI44108401
aI32013301
aI44051201
aI36011201
aI50030211
aI33023001
aI44021801
aI33019281
aI37052301
aI44101391
aI37097081
aI44103301
aI43012601
aI44031401
aI37062601
aI43013401
aI37022901
aI64010301
aI43081501
aI44123801
aI34015101
aI43052201
aI36074001
aI34131401
aI44011261
aI33073401
aI33053601
aI42014501
aI42121001
aI31074601
aI41142301
aI37037351
aI13072401
aI42121401
aI53230101
aI44101091
aI44012181
aI34011501
aI14080501
aI11058701
aI62014501
aI44061301
aI37087251
aI31125401
aI44082901
aI50050051
aI52011101
aI34081701
aI44022101
aI34013701
aI37047081
aI44137901
aI37077101
aI46050201
aI34081901
aI35045011
aI33052601
aI32051001
aI12051091
aI23051671
aI15020201
aI32101601
aI31116501
aI32132001
aI12041101
aI31134501
aI33012801
aI37160701
aI34050301
aI44071801
aI41121301
aI43111101
aI32106611
aI51010351
aI11021401
aI36114701
aI41142201
aI51010071
aI13017901
aI42150301
aI41022801
aI41071401
aI34017801
aI37063701
aI43063001
aI35052701
aI37057051
aI33033701
aI45030531
aI43084101
aI41052201
aI33019231
aI31092901
aI13103801
aI37057181
aI44114701
aI31182101
aI45030471
aI21010881
aI37147101
aI32065311
aI32029531
aI33096601
aI41133101
aI44012151
aI62110501
aI33043601
aI43090801
aI32106911
aI31164201
aI45110121
aI41073701
aI37100601
aI42170601
aI34102401
aI51019971
aI37036501
aI35014871
aI43122601
aI36043401
aI23012521
aI33048401
aI51020802
aI33075001
aI23042171
aI41132901
aI21070121
aI23042501
aI37054101
aI45020601
aI32027311
aI12040961
aI36113801
aI35022801
aI31116601
aI23120010
aI44011051
aI37187091
aI41163001
aI13064101
aI52270601
aI42021601
aI42033401
aI14081101
aI51158201
aI32018511
aI32018211
aI51016201
aI37037251
aI44014901
aI32110501
aI36090231
aI33097501
aI31134201
aI32038611
aI61020301
aI36110271
aI33072601
aI34030601
aI41021101
aI43021901
aI41080201
aI44163001
aI34051701
aI44110901
aI33018161
aI34172101
aI44114801
aI21110161
aI33018511
aI51098601
aI32026301
aI37053901
aI61011901
aI51130601
aI62061001
aI51050551
aI32103401
aI44052101
aI43102601
aI32073311
aI44191401
aI43018901
aI14012211
aI41052501
aI34014201
aI62121001
aI44018201
aI33055501
aI51050011
aI44160301
aI44001881
aI53060901
aI45010481
aI51140501
aI15121951
aI21110151
aI36100231
aI37087291
aI21130301
aI41014401
aI61100801
aI44141701
aI41011901
aI21140801
aI44131261
aI23110501
aI61050101
aI44082301
aI44083001
aI34141101
aI43083301
aI51070021
aI33022801
aI15060201
aI41080101
aI32023001
aI44052601
aI32112511
aI43071301
aI51110021
aI34171801
aI44191301
aI44011591
aI34023701
aI36044601
aI34091101
aI34050601
aI43140301
aI44109201
aI15080102
aI41162301
aI44221901
aI44102201
aI32107111
aI51169961
aI33076601
aI46031901
aI44072201
aI44030401
aI61016001
aI34131501
aI33082401
aI44011431
aI44001911
aI34132201
aI36074701
aI41033401
aI22022801
aI42092601
aI33066601
aI33042301
aI37110901
aI44121101
aI36090901
aI36112101
aI37057061
aI13041701
aI65010461
aI44071501
aI14080601
aI37027181
aI45080301
aI44200901
aI32029111
aI65290104
aI33041061
aI13092401
aI44131251
aI41091701
aI42120601
aI31172501
aI43131601
aI35052801
aI45050171
aI44131211
aI50040201
aI23048111
aI14093321
aI44221801
aI45012301
aI51176101
aI44083401
aI41016301
aI33014701
aI21040131
aI36080281
aI37064301
aI42103501
aI32065111
aI32120302
aI32039051
aI50120701
aI13092801
aI41011211
aI32071801
aI44014701
aI44161002
aI33018171
aI44084901
aI43070502
aI53290301
aI35051601
aI44011871
aI21130901
aI44210801
aI42014701
aI13052801
aI34080901
aI33018761
aI34120501
aI13054701
aI32040902
aI35023871
aI51020701
aI45012201
aI45030481
aI51150101
aI33041121
aI22022601
aI35010441
aI44105701
aI21011601
aI46011401
aI34130801
aI33075901
aI32102401
aI36016501
aI13025401
aI37100501
aI51120711
aI43080901
aI51015961
aI34011901
aI37035801
aI43019401
aI51017001
aI64010311
aI33074301
aI53011601
aI50120261
aI43022101
aI42051901
aI35054981
aI35010202
aI32029661
aI44032901
aI51096811
aI32080701
aI42151201
aI34141801
aI13020601
aI13040201
aI32063711
aI44012031
aI43083101
aI41042701
aI36044101
aI32039211
aI54016231
aI32104611
aI13019501
aI35054541
aI37037211
aI33018201
aI42082501
aI34062201
aI51150421
aI52221701
aI32029481
aI44223901
aI34024201
aI32035311
aI33018791
aI45010531
aI43020401
aI34131201
aI37027291
aI43013101
aI21071001
aI33077501
aI43063201
aI44161801
aI44105601
aI43015201
aI63010191
aI33043301
aI65010541
aI37170101
aI43110701
aI13105701
aI51139501
aI33062001
aI33041031
aI61011091
aI42011901
aI43071101
aI33094801
aI51066121
aI11111101
aI41142901
aI33048101
aI37035401
aI14242981
aI32044111
aI34080501
aI32064111
aI44122701
aI44101021
aI44220301
aI50120141
aI21040601
aI14010201
aI33095101
aI35010431
aI43101301
aI61051401
aI32064711
aI36114401
aI35080601
aI51150511
aI13018401
aI37117101
aI32043711
aI32108311
aI35022901
aI41011141
aI44011951
aI44170801
aI53030501
aI32029141
aI14111001
aI44052401
aI21010931
aI41011151
aI13105601
aI13019301
aI32023401
aI44172501
aI44201101
aI32052301
aI33042801
aI44103701
aI32029061
aI44012241
aI37101201
aI32071401
aI32012401
aI44122901
aI32027511
aI44191101
aI22032601
aI44110502
aI31184001
aI33082101
aI23050111
aI33034701
aI32133311
aI21130111
aI11081102
aI33033301
aI37117071
aI13053201
aI51096201
aI44101291
aI31182601
aI44083501
aI14083671
aI32037411
aI50030501
aI31163901
aI42062601
aI36074201
aI32029551
aI42060301
aI42018501
aI32035711
aI43070901
aI36100601
aI44022901
aI32029281
aI42112201
aI32053711
aI37067041
aI32034901
aI44108601
aI45010441
aI51120411
aI43042901
aI42072701
aI31116101
aI22113501
aI45040801
aI22112701
aI31051701
aI33075401
aI44101321
aI61033001
aI64010101
aI61062201
aI51028501
aI33111801
aI14083701
aI42053401
aI35053001
aI42173601
aI51015901
aI42121201
aI34017701
aI43084201
aI12100911
aI44012121
aI32024401
aI43014601
aI22113701
aI45080121
aI44223001
aI34051001
aI52240601
aI42112301
aI13010401
aI51030401
aI35010421
aI31051301
aI37160301
aI32029171
aI33078301
aI50050071
aI33022601
aI37082201
aI33074001
aI41072501
aI44134201
aI52221501
aI13032301
aI43061801
aI53030202
aI21050081
aI32029651
aI32135211
aI50020201
aI34041401
aI31193701
aI33019271
aI61010201
aI44012071
aI14061101
aI44172601
aI44007301
aI34131901
aI36090451
aI21080501
aI33077201
aI65020103
aI33095001
aI50410031
aI44001891
aI32033701
aI51190021
aI44090701
aI46120201
aI45041001
aI14020102
aI41041201
aI11061371
aI13053001
aI37137021
aI44211101
aI32073911
aI14243561
aI52241501
aI33053501
aI51015941
aI52014301
aI51096261
aI43014701
aI41152301
aI42090201
aI37037031
aI65010531
aI21090111
aI42172401
aI33090201
aI51118401
aI44000901
aI36043301
aI44021001
aI51020011
aI43051401
aI44137401
aI12010101
aI32029631
aI37077121
aI51080161
aI62030601
aI32039141
aI61015301
aI50430101
aI33024001
aI62031201
aI37127091
aI44030102
aI45010501
aI41072701
aI33018581
aI42010802
aI44160601
aI33019481
aI13082301
aI14010701
aI13063401
aI41133601
aI41011241
aI33030701
aI22023401
aI61019601
aI50180131
aI32081201
aI14090101
aI52014001
aI44001502
aI21022801
aI61017201
aI21020611
aI44017501
aI43103501
aI13042001
aI44001821
aI11089901
aI21100901
aI43071201
aI37147061
aI15050105
aI31030603
aI41142801
aI44001141
aI50010121
aI33112101
aI33066101
aI44101041
aI31173201
aI32121411
aI36011400
aI41021901
aI51016071
aI32038511
aI23121201
aI46031801
aI44011481
aI51028601
aI44070901
aI37160901
aI13025301
aI34023401
aI44011151
aI43110401
aI13032701
aI50120801
aI44085101
aI51016301
aI53017601
aI34024301
aI13072801
aI44114901
aI32027811
aI37150801
aI32019101
aI43010911
aI32063411
aI45060281
aI42173301
aI42092301
aI13106601
aI52080001
aI34060901
aI32036911
aI41143301
aI65010306
aI44012541
aI64020051
aI42032301
aI21080181
aI33053401
aI51180041
aI44090101
aI44011931
aI44138201
aI41072801
aI65010631
aI45140101
aI36075201
aI36057011
aI14110601
aI35064841
aI43032601
aI34083001
aI43111001
aI65220131
aI44211801
aI44030402
aI44115301
aI61013701
aI42101701
aI42014301
aI33032001
aI13011031
aI53015101
aI41072601
aI36011101
aI32029091
aI37051501
aI52031001
aI44131311
aI42051701
aI33061041
aI43103701
aI41091401
aI44138301
aI33018441
aI63010111
aI44107701
aI36074501
aI34018001
aI14080901
aI33112601
aI44106901
aI36031101
aI37037001
aI37077051
aI21040501
aI14102561
aI41072201
aI14030401
aI44051901
aI51073301
aI43017701
aI22114801
aI45020111
aI65010441
aI65230102
aI44012351
aI37147081
aI44084601
aI44001721
aI34131301
aI34101101
aI51178301
aI36071801
aI34062501
aI52271001
aI44062101
aI51098801
aI13041501
aI44001361
aI33019001
aI62071001
aI13054201
aI33096401
aI44030901
aI41074001
aI61052101
aI43013001
aI33015301
aI63020061
aI44101071
aI50350102
aI34015401
aI51016141
aI43020201
aI31152001
aI21020591
aI37187061
aI22090401
aI52013001
aI32014501
aI52220701
aI44115201
aI13064001
aI64011601
aI13091601
aI44052201
aI41010303
aI13019201
aI14080201
aI33031801
aI44171501
aI43101101
aI41142501
aI51160881
aI12031701
aI36044401
aI51018101
aI44100501
aI42091401
aI31165201
aI52230201
aI50120401
aI33051101
aI33018411
aI32044611
aI43032001
aI32025901
aI31196001
aI42103601
aI41143701
aI50010151
aI13064501
aI21016701
aI32134911
aI62020601
aI15031921
aI13013401
aI53250901
aI34023801
aI32074011
aI43020601
aI45090071
aI13036611
aI61016401
aI33066001
aI42032701
aI42082101
aI65020201
aI32092211
aI31183801
aI37067151
aI44061201
aI44032601
aI51197711
aI50190021
aI33042401
aI36030101
aI13024601
aI43112701
aI32032401
aI23068211
aI44151101
aI44012661
aI42019231
aI44110701
aI61060101
aI44114201
aI35024571
aI45110101
aI42034001
aI44014801
aI44151201
aI11030101
aI44001391
aI42041601
aI44101601
aI13062201
aI45060221
aI50010801
aI23059901
aI41141401
aI32091401
aI33044701
aI37054201
aI41161301
aI37117031
aI32029601
aI64010271
aI44211001
aI52272201
aI33035501
aI52230301
aI53014401
aI21013101
aI34141701
aI44101181
aI44001702
aI37147111
aI44031201
aI21031301
aI42071101
aI45061001
aI35060211
aI23121101
aI21010991
aI64020501
aI32029611
aI44190701
aI44101331
aI32033401
aI44012191
aI35061301
aI41143601
aI45030341
aI44084001
aI43112401
aI36090281
aI44172401
aI33022501
aI44021301
aI37037171
aI61091901
aI44104001
aI33077001
aI53016601
aI34100701
aI44161201
aI14013171
aI21023701
aI33041021
aI36073701
aI44001681
aI51068701
aI44112401
aI34010201
aI44080201
aI62110601
aI36080101
aI31163601
aI31019901
aI13013001
aI44012091
aI44052501
aI33031401
aI32108511
aI43112101
aI45080701
aI61050501
aI15071971
aI34140302
aI51096101
aI32081501
aI33065701
aI11070702
aI44011941
aI54016201
aI43011811
aI13104701
aI34081601
aI22116301
aI35061101
aI45110051
aI36110361
aI23100201
aI42080901
aI32042601
aI32017611
aI36090801
aI37087141
aI51120501
aI33055401
aI34062401
aI44018401
aI35031101
aI34070401
aI37170401
aI34131001
aI51100401
aI64050061
aI32106811
aI44001491
aI44083601
aI35090101
aI50300031
aI43010201
aI61030801
aI44009501
aI14023041
aI32019091
aI33023201
aI36080211
aI32107711
aI44190501
aI53015401
aI21050111
aI32103811
aI33034201
aI44012671
aI37035201
aI51067701
aI33036001
aI35034721
aI34031401
aI44162101
aI43082901
aI32044811
aI44101191
aI33018651
aI36043101
aI43091001
aI42081501
aI53017801
aI35054371
aI14102791
aI43032301
aI50270201
aI44223701
aI43082601
aI44112001
aI41081801
aI33055600
aI44083201
aI41022501
aI44181801
aI12101051
aI34082901
aI51168201
aI61015201
aI36080901
aI46032001
aI36016901
aI44001651
aI61011081
aI44018901
aI43100601
aI13021201
aI62014601
aI34052801
aI32039031
aI12150831
aI34051301
aI14240601
aI13052301
aI21140151
aI33047101
aI44200701
aI41033001
aI33077101
aI44084401
aI33045601
aI45050121
aI51010211
aI22070901
aI35054271
aI41013801
aI33078701
aI44011701
aI14242671
aI44012041
aI51070011
aI33035401
aI14070201
aI35031401
aI42032401
aI51010271
aI51026201
aI32029441
aI37087081
aI51143501
aI45032501
aI45070121
aI50060131
aI41173501
aI35011402
aI15011671
aI50140201
aI22021401
aI36090221
aI52021501
aI23128121
aI61016701
aI34014901
aI45050501
aI44102301
aI44124601
aI43083701
aI44150501
aI14113351
aI32133411
aI42081801
aI45061501
aI45010391
aI22061001
aI31010301
aI50410021
aI37087231
aI13062901
aI34062101
aI36091801
aI12115701
aI33022901
aI43043801
aI33066401
aI37027091
aI33111201
aI13076641
aI44001861
aI32039171
aI21080201
aI51106151
aI34052401
aI13021701
aI44171901
aI34011801
aI61018101
aI36112001
aI15041130
aI43102401
aI13018801
aI44101801
aI52033501
aI43084301
aI33061011
aI44101411
aI32107311
aI51090302
aI53080101
aI52022101
aI44033301
aI44062501
aI32035411
aI34151401
aI32028211
aI61091201
aI52033001
aI51096221
aI43070701
aI33023601
aI61092301
aI50280021
aI51085101
aI35012501
aI33053801
aI11055301
aI36110261
aI22023501
aI45031901
aI61051801
aI32106511
aI53015801
aI44190201
aI35074071
aI32133511
aI65422311
aI32053111
aI21020651
aI13051401
aI51098901
aI42120901
aI37147021
aI37037301
aI33052701
aI36110191
aI13033601
aI43110901
aI44071301
aI37147031
aI43130101
aI44030302
aI52033101
aI21110801
aI32029201
aI51069971
aI41031201
aI37107091
aI41011221
aI45010591
aI34014301
aI33041131
aI21120121
aI43040801
aI45041201
aI36050801
aI42130201
aI51016061
aI52040501
aI44012211
aI12070711
aI37097011
aI51032701
aI33035201
aI35054641
aI44001431
aI44012021
aI35051001
aI65400231
aI43102701
aI44170601
aI44109001
aI51120421
aI44012481
aI31153001
aI44031601
aI51150201
aI32037811
aI43140801
aI36100501
aI34020101
aI44131271
aI36100291
aI43082001
aI50310201
aI43016101
aI45020251
aI44005003
aI50090081
aI32105011
aI50240201
aI52012501
aI36072501
aI44001731
aI42019341
aI34150801
aI51146101
aI44012321
aI32038311
aI37035101
aI13026301
aI41034101
aI42032901
aI45140041
aI21030261
aI44062201
aI23059971
aI22021801
aI61019001
aI41082601
aI42092201
aI44133501
aI33082501
aI41112201
aI34171501
aI37067181
aI37071401
aI37147041
aI32093411
aI37064101
aI33016301
aI34019301
aI44101221
aI43052101
aI36080191
aI15071711
aI33093801
aI14242131
aI32121811
aI33072801
aI34019101
aI51170011
aI35061401
aI37087161
aI45021302
aI53040801
aI22081201
aI51106161
aI45010461
aI32104711
aI45110081
aI61080701
aI61031101
aI34171901
aI33062701
aI23050511
aI22060091
aI13055201
aI51120911
aI13026701
aI51096271
aI33068901
aI43010611
aI41017201
aI41132501
aI37147011
aI21020541
aI33076101
aI13052901
aI12121001
aI13082801
aI34101201
aI32130501
aI51029631
aI53013601
aI44101161
aI44001011
aI61041301
aI15102081
aI43032701
aI50430201
aI32029131
aI62012801
aI22031401
aI53250601
aI44012061
aI13019601
aI44116101
aI36080231
aI33092901
aI52240501
aI33018241
aI41023001
aI41174401
aI21010961
aI43040501
aI35014111
aI64030151
aI46060101
aI51162701
aI15221861
aI14111301
aI33046501
aI31134301
aI62141101
aI41022301
aI44009301
aI51012601
aI41018901
aI32041201
aI32029691
aI51010261
aI42019161
aI50120191
aI34100501
aI44122801
aI44101421
aI44062701
aI51016401
aI44141301
aI37053301
aI36113701
aI32122111
aI32072101
aI36100181
aI50070091
aI52033401
aI43092101
aI44134401
aI32043101
aI50140011
aI31112501
aI45090301
aI44092001
aI41151601
aI41111201
aI52260401
aI14050301
aI14110701
aI44060401
aI65901041
aI14072711
aI21080111
aI33094101
aI51098701
aI44082001
aI41161601
aI37037341
aI53030701
aI34022601
aI44011851
aI21130081
aI33063101
aI31133601
aI32074311
aI14082951
aI36043901
aI44011331
aI44031301
aI44001251
aI32070701
aI35034891
aI43112601
aI33077801
aI23022311
aI42173101
aI50030221
aI37063101
aI41082901
aI33018751
aI64020071
aI34101801
aI31061701
aI53031601
aI35094361
aI34040801
aI32029291
aI41112401
aI44003501
aI41152701
aI15221731
aI33083001
aI62020801
aI14062371
aI53061601
aI44012651
aI13017001
aI43062901
aI61040301
aI41033301
aI23050010
aI13016201
aI35060201
aI21011031
aI36060701
aI33075101
aI42112101
aI32073111
aI33012901
aI42070301
aI36042201
aI33018781
aI43050201
aI44132801
aI45090091
aI64012301
aI41092201
aI44134801
aI44019901
aI46080301
aI53011302
aI23102111
aI61062101
aI33101201
aI41015301
aI50140101
aI33047201
aI35054911
aI13054301
aI44019801
aI32063611
aI44221001
aI51030201
aI44011451
aI53290801
aI23122111
aI14082801
aI44011891
aI44083801
aI34023101
aI43060501
aI44101261
aI35060221
aI44071101
aI32019141
aI37111501
aI36110901
aI34041201
aI32120701
aI50380101
aI45080401
aI33101501
aI53292801
aI41021801
aI36071101
aI62012002
aI52271701
aI35051402
aI35064941
aI35084921
aI13352001
aI53251601
aI43043001
aI33076021
aI22040601
aI37052701
aI34032501
aI50040071
aI44224401
aI37047091
aI44137301
aI51096231
aI36030801
aI53051201
aI34060701
aI65400211
aI11050202
aI33020801
aI32073711
aI50030801
aI50160031
aI33052301
aI32025801
aI32071301
aI14243451
aI41022401
aI41092101
aI33024101
aI33041801
aI12071101
aI32084111
aI44030202
aI33112201
aI42019461
aI33061301
aI14032641
aI61032401
aI41112101
aI31052201
aI36020101
aI61092101
aI13062501
aI14110301
aI36112801
aI36016301
aI44022801
aI37087101
aI50070161
aI14072411
aI36014901
aI32062201
aI51038311
aI21050061
aI62041001
aI37070901
aI37187141
aI13101201
aI33021801
aI21023501
aI13018001
aI15010408
aI37111101
aI35054011
aI13073801
aI62020401
aI22061101
aI33081901
aI21090051
aI52241701
aI23120201
aI44012421
aI34015601
aI62130101
aI41121801
aI21130501
aI44101451
aI51014901
aI52241601
aI36100271
aI53231201
aI42017711
aI32106311
aI45030361
aI12154001
aI61040801
aI35054081
aI22111501
aI42062201
aI23010991
aI14073661
aI44012611
aI13015901
aI32109131
aI37107031
aI15073231
aI13073401
aI51029601
aI44011131
aI32102101
aI41042901
aI41034201
aI32092611
aI61072301
aI32081701
aI44012411
aI32038211
aI32054211
aI14072751
aI44131091
aI23050801
aI37037191
aI34018501
aI32029491
aI21020561
aI13018601
aI41133501
aI43051901
aI44113601
aI12070801
aI44091601
aI53015301
aI52230101
aI46090101
aI33044001
aI34090801
aI37157051
aI42052401
aI37111701
aI44162401
aI50130121
aI33091901
aI52041601
aI32019261
aI45080131
aI13019001
aI41143801
aI44011281
aI13106401
aI35055001
aI45130051
aI34132301
aI32111311
aI14071101
aI44171601
aI36042001
aI65010471
aI53252301
aI33076501
aI31061401
aI42031701
aI50400021
aI45020181
aI61071201
aI12121011
aI32104811
aI37033901
aI54262101
aI41073801
aI13011021
aI61041801
aI50260201
aI15110102
aI32028611
aI44001171
aI61050401
aI32102501
aI33051301
aI31202501
aI50140401
aI42051601
aI32134111
aI14073831
aI34082201
aI37082101
aI33017601
aI11051221
aI43062501
aI32034801
aI32019221
aI62071201
aI51057601
aI53031101
aI22081001
aI42080801
aI35044881
aI34022001
aI44082501
aI31115701
aI53290401
aI33019491
aI51020601
aI14052721
aI33111501
aI51040011
aI36010501
aI14072161
aI15023241
aI65013021
aI53012001
aI33110801
aI50070401
aI53280101
aI44011551
aI22112901
aI23012561
aI44141801
aI50120251
aI32027111
aI13061801
aI37180801
aI41073401
aI41173801
aI43019701
aI21070161
aI62013001
aI44131061
aI44012571
aI45020401
aI61072201
aI36080601
aI41019601
aI32070402
aI43016201
aI44152901
aI33064601
aI53250701
aI21040201
aI13062701
aI14062811
aI53033001
aI15120101
aI32072811
aI53016001
aI33075501
aI43016301
aI53017101
aI53250401
aI21030321
aI51090041
aI44115701
aI34160601
aI53017201
aI32112411
aI41091901
aI33032801
aI62031001
aI43101601
aI44131081
aI33081801
aI45070071
aI34019201
aI36080251
aI44109301
aI44012551
aI37187121
aI43042401
aI31165401
aI33094901
aI14243141
aI44072001
aI32038811
aI32090901
aI21070181
aI50140301
aI32106111
aI15030901
aI36011501
aI36100221
aI41042801
aI13033701
aI51091101
aI36060801
aI37097111
aI44101121
aI41011101
aI42051001
aI14072181
aI53017701
aI50220041
aI33068201
aI51120191
aI32108611
aI44011921
aI23012811
aI50130141
aI23042211
aI44221101
aI44011122
aI53051401
aI13020301
aI31195801
aI62051201
aI13351601
aI35012101
aI53290101
aI42091801
aI44109901
aI33056201
aI13083301
aI37117111
aI44091201
aI11080302
aI45030391
aI37027311
aI13105301
aI15012161
aI42112001
aI35093831
aI44001691
aI41071501
aI37034801
aI41051401
aI34090401
aI32032201
aI44200801
aI64010251
aI53017901
aI37107071
aI33010802
aI37067131
aI33018771
aI50190031
aI43050701
aI61090301
aI32107611
aI21080141
aI51040041
aI37057171
aI22070701
aI32025501
aI31112901
aI13055601
aI32029471
aI35084821
aI36100161
aI44136301
aI51143301
aI51140141
aI33079901
aI43060601
aI34061001
aI65220141
aI43043501
aI64050051
aI32108711
aI32028911
aI15251391
aI51016161
aI52040901
aI37147141
aI50080021
aI36090351
aI44001371
aI44181901
aI33076301
aI61091701
aI32029571
aI51090161
aI31162901
aI23210301
aI36040701
aI50010101
aI52272101
aI36091201
aI65400204
aI14092421
aI35073851
aI13073101
aI32037711
aI13019101
aI44181501
aI44083301
aI36080261
aI53030901
aI51010811
aI43092301
aI43012701
aI11151011
aI43031401
aI34082801
aI15111431
aI61011011
aI44085701
aI13052401
aI36090291
aI44101171
aI44222501
aI32013201
aI32105711
aI34102301
aI35090701
aI36090401
aI44162501
aI44010702
aI22032201
aI46010101
aI13073201
aI43020701
aI44134901
aI33094401
aI44017101
aI14070502
aI44135401
aI37057141
aI45060251
aI62060201
aI36091301
aI36043801
aI62080801
aI50020071
aI37082301
aI12230691
aI41171901
aI23052121
aI42150801
aI37121901
aI14052531
aI43011501
aI45010621
aI51012901
aI35050202
aI45080151
aI53261301
aI33042001
aI13070701
aI33068301
aI33022201
aI65020121
aI21120101
aI50031401
aI32039161
aI41034001
aI21130701
aI31194207
aI15061961
aI14052481
aI44103001
aI51060301
aI22022101
aI52013201
aI44114601
aI54222101
aI23032181
aI61042401
aI61080901
aI32052811
aI36075401
aI33047001
aI42171501
aI12115001
aI33033001
aI44061901
aI36011601
aI41042501
aI44121301
aI45012101
aI11069001
aI21080211
aI41121401
aI43010101
aI51170021
aI21010861
aI45090201
aI41011171
aI64011001
aI43130501
aI45110201
aI12250681
aI41162901
aI14103091
aI44136401
aI41020202
aI34017601
aI51100011
aI61072701
aI37067141
aI51180221
aI23013901
aI32026201
aI51120201
aI51058111
aI43062701
aI52272301
aI13015601
aI41081101
aI21030181
aI43081601
aI51108501
aI33062101
aI53040601
aI36081301
aI33017701
aI35030101
aI23012511
aI34022301
aI35012601
aI44138001
aI50030271
aI14062261
aI33040901
aI32027001
aI44222101
aI51090011
aI34140601
aI64012321
aI52030701
aI51036601
aI44050201
aI52014401
aI62070401
aI53031501
aI23060801
aI32106711
aI34091001
aI32014901
aI61072001
aI44172301
aI36080311
aI37067201
aI32112211
aI21110701
aI32039131
aI53013801
aI52040401
aI21020751
aI43072101
aI64030171
aI32102701
aI36050301
aI44139001
aI51180201
aI32042701
aI51016131
aI42052501
aI14242831
aI44116801
aI44022001
aI33077901
aI21015901
aI44011421
aI43103401
aI44137001
aI36044501
aI44011881
aI45090111
aI33018451
aI62120101
aI36030601
aI36073401
aI41071301
aI42111401
aI41173901
aI44112801
aI53252401
aI36028101
aI33032501
aI35074491
aI52230501
aI33043501
aI42021001
aI41072401
aI33096001
aI51118411
aI13019901
aI33036101
aI21060141
aI61031401
aI14070601
aI44011581
aI44012231
aI61012301
aI37187131
aI51120921
aI37051801
aI45120301
aI34062701
aI44110801
aI45061401
aI37087071
aI44060601
aI44023001
aI43100201
aI44101031
aI45060271
aI53051301
aI46130201
aI43130301
aI36080301
aI32112011
aI51060401
aI61032301
aI44137701
aI37081401
aI14110801
aI22020903
aI37037201
aI43090401
aI13025801
aI53250201
aI34012201
aI45070601
aI13024401
aI45020191
aI51210101
aI41140101
aI32018611
aI42019511
aI33018701
aI42052301
aI44011641
aI51090401
aI43019501
aI51078811
aI45060291
aI32109081
aI51060191
aI35054141
aI14100101
aI12092501
aI15100106
aI34150601
aI32054811
aI61017701
aI62060301
aI52030801
aI43072201
aI50010161
aI50180401
aI32110802
aI33034101
aI45060261
aI51169951
aI14063781
aI14240901
aI36071401
aI41019001
aI45070081
aI61072501
aI35014011
aI64011802
aI37097061
aI35094231
aI51015981
aI52240701
aI14070701
aI63020021
aI51176131
aI44116011
aI41033501
aI63020031
aI12071111
aI31128801
aI22030301
aI11080502
aI35010501
aI54230101
aI33031901
aI61031301
aI44012561
aI51020021
aI21130801
aI42092001
aI13091201
aI43130901
aI13083201
aI21060181
aI45020171
aI12070731
aI44120601
aI42019191
aI21050051
aI44011191
aI33062601
aI33097401
aI44012011
aI51158501
aI41162701
aI32025401
aI36112401
aI45020501
aI33051401
aI62060701
aI51068301
aI37087281
aI61031601
aI51010321
aI45060211
aI44011111
aI36073201
aI22050301
aI36113401
aI45060231
aI36110181
aI44001931
aI52033201
aI36113001
aI34040601
aI53050901
aI41081701
aI41143501
aI44160901
aI31120907
aI45010101
aI44018701
aI53010001
aI35064671
aI44040701
aI43071001
aI43082301
aI22051101
aI34022701
aI36042301
aI22090602
aI44011981
aI64011901
aI14112221
aI34021501
aI37141501
aI36100121
aI36050202
aI34141301
aI37062801
aI51014701
aI13042301
aI33018571
aI33082301
aI51010971
aI61061801
aI13022801
aI45140151
aI33066501
aI12050601
aI41043001
aI44101701
aI52014501
aI51083211
aI14070901
aI37061802
aI36080221
aI14082731
aI61052001
aI44101431
aI53260801
aI43103301
aI44107601
aI45030351
aI45032101
aI51099511
aI50160061
aI33063301
aI44011691
aI41162101
aI35031501
aI36081001
aI11051231
aI32039201
aI11051411
aI44012371
aI52240401
aI37027231
aI11050761
aI36072901
aI22041301
aI43061701
aI36070601
aI13042401
aI13060302
aI22050701
aI42091901
aI42030902
aI41172801
aI61051201
aI43103601
aI13106301
aI11084201
aI44013401
aI41043401
aI44115101
aI32133911
aI52220601
aI32062911
aI21010981
aI37080701
aI44107501
aI41016001
aI35084121
aI51033101
aI44171401
aI36080291
aI52022001
aI44011101
aI21090401
aI34052601
aI33066301
aI42172501
aI62140501
aI44131021
aI41015201
aI23012551
aI13051101
aI34030701
aI41133801
aI35071801
aI13011041
aI41051901
aI33018601
aI34017301
aI37137071
aI22023301
aI33018611
aI33016101
aI33095701
aI15051621
aI43110501
aI35034611
aI41123111
aI52271301
aI42053101
aI41151901
aI52011701
aI44137801
aI52032201
aI13013101
aI44082201
aI34018701
aI32019241
aI22040101
aI21120601
aI42019241
aI33030901
aI41033201
aI36070802
aI15021631
aI33042201
aI44138801
aI34017001
aI44131321
aI53040901
aI44101371
aI35011802
aI14243621
aI51066111
aI37063801
aI37027261
aI52041501
aI44011341
aI42020701
aI32106411
aI51067601
aI23118111
aI41132401
aI41042101
aI35052401
aI37151501
aI34080801
aI32026701
aI41043201
aI50120271
aI45020231
aI36073001
aI44108101
aI44105001
aI53294201
aI31173001
aI22111901
aI21070151
aI32053311
aI34061301
aI50180201
aI51012401
aI32019071
aI13023601
aI41041301
aI13102201
aI11030703
aI42091501
aI31113101
aI35090601
aI44182301
aI45120091
aI31114101
aI37091101
aI42110901
aI31100901
aI13080301
aI12250622
aI51150111
aI46140101
aI22030702
aI22090301
aI44120401
aI45140021
aI41101201
aI36042401
aI45010431
aI32070901
aI65010305
aI21100131
aI51066131
aI41021701
aI46040501
aI44001671
aI37141901
aI37100302
aI44101151
aI62070501
aI32120201
aI35093951
aI14242901
aI34061901
aI42014801
aI44134001
aI32109121
aI53311401
aI45140111
aI33073001
aI37122301
aI45030441
aI44170501
aI32064811
aI62030401
aI42111601
aI44101011
aI41172501
aI31152901
aI13024701
aI52041301
aI62031301
aI36073601
aI62014201
aI37087261
aI37090501
aI13026501
aI43112001
aI37077041
aI63010161
aI12141031
aI21010751
aI13061301
aI35060161
aI61091401
aI44131221
aI43015501
aI37087271
aI34171701
aI44131031
aI65310104
aI50130131
aI43082401
aI23013601
aI13027001
aI41134701
aI14071001
aI15100202
aI50120241
aI50120321
aI32038911
aI62014101
aI13021101
aI65010301
aI33077601
aI34082001
aI14020203
aI11050911
aI51106141
aI36091901
aI45030331
aI14242341
aI21130071
aI42032201
aI45100301
aI13051002
aI44001921
aI37032001
aI36043501
aI36114301
aI36041601
aI42150601
aI52241001
aI41111501
aI62140301
aI21023601
aI21120102
aI41032801
aI65010221
aI62060901
aI45080091
aI42019491
aI41019701
aI44011071
aI13081101
aI44004701
aI61100201
aI51150431
aI14050202
aI44131301
aI37147131
aI44112301
aI35011301
aI37127101
aI36072101
aI37063501
aI51197701
aI32108811
aI32042901
aI33064701
aI33017001
aI15041451
aI44121701
aI53032501
aI13033001
aI31134401
aI43010811
aI51068401
aI51016151
aI34061701
aI22041101
aI51096251
aI43051101
aI36111601
aI44104101
aI37087131
aI46021501
aI37030101
aI36060601
aI15102121
aI43042801
aI35031201
aI34081401
aI52033601
aI42063201
aI23128181
aI44138901
aI21090202
aI45140081
aI36110801
aI61040701
aI41031501
aI32024901
aI43120801
aI63070011
aI37067031
aI34100601
aI45130201
aI37060901
aI53280701
aI44001521
aI34171601
aI33074501
aI52220901
aI53050401
aI37097041
aI44101401
aI32038111
aI44031101
aI11151251
aI37080601
aI14243271
aI36021601
aI41141601
aI37131101
aI62100301
aI33100501
aI23079921
aI44131041
aI41042201
aI52221601
aI53291001
aI22070301
aI23062801
aI32029231
aI62040401
aI13352101
aI44051501
aI33052401
aI44123101
aI52262401
aI36098302
aI61060701
aI41151301
aI43102001
aI37151601
aI42041301
aI44006701
aI41082201
aI45040171
aI33021701
aI23038511
aI61031701
aI34130601
aI23033301
aI62020301
aI62090901
aI62060501
aI37137031
aI33035601
aI13026001
aI15030101
aI44019601
aI33018401
aI43062301
aI22111601
aI44135101
aI44005501
aI41012901
aI35094331
aI42092401
aI44101061
aI14243121
aI61081701
aI52270401
aI14070301
aI21071101
aI61061301
aI61031901
aI44011781
aI37187041
aI42082601
aI52241101
aI37112001
aI37070801
aI33074101
aI35084391
aI33061701
aI42081701
aI44012531
aI13073001
aI13015801
aI22041401
aI45030421
aI45041101
aI52015001
aI37150701
aI64030181
aI37140501
aI61040201
aI36100171
aI36081201
aI34160301
aI34082601
aI50090061
aI53292101
aI53330101
aI14052151
aI37127061
aI31113201
aI21080601
aI13022101
aI37087001
aI61019901
aI45120111
aI45110171
aI13105501
aI37087301
aI44210201
aI44142101
aI13053601
aI36110101
aI13351501
aI44182101
aI50080131
aI14092351
aI44050401
aI51180011
aI11080602
aI43010511
aI45140091
aI44113701
aI51180021
aI41121201
aI34140801
aI51068101
aI36015901
aI43011111
aI37101401
aI51168001
aI45041301
aI43140401
aI34070101
aI53017401
aI51016081
aI43122201
aI41173201
aI61041901
aI37167021
aI44123601
aI43041601
aI21011001
aI32135111
aI35054321
aI37063001
aI41041601
aI44011961
aI35070501
aI42033801
aI37130601
aI43111801
aI50020081
aI53231401
aI33018711
aI52262501
aI34050701
aI21010891
aI34018901
aI45040181
aI45030411
aI50220051
aI45032601
aI35091101
aI44001081
aI35091501
aI63050031
aI33066201
aI53251501
aI44132001
aI15012141
aI52032001
aI37100902
aI51096241
aI65430111
aI34014601
aI35091401
aI61071101
aI43120401
aI41161101
aI32081601
aI41132001
aI51118421
aI44201501
aI13016501
aI34130701
aI44190601
aI22091301
aI42100401
aI14033071
aI45140061
aI32091101
aI45040161
aI37097031
aI61062601
aI53032001
aI61016901
aI51120301
aI37147091
aI31032002
aI36090251
aI33077401
aI45130041
aI44091801
aI13033401
aI33045301
aI45090401
aI61032101
aI21090301
aI22111401
aI22040801
aI34030901
aI53010501
aI36071301
aI44139901
aI53032701
aI43102301
aI65900102
aI34131701
aI21015701
aI34060401
aI36040801
aI36081101
aI37057201
aI43018301
aI52230901
aI42101901
aI62021101
aI51100301
aI51011231
aI33092501
aI52222001
aI51010011
aI44131101
aI13054101
aI37107021
aI32039091
aI65230121
aI13073301
aI23118211
aI36090341
aI13010701
aI44090501
aI43122001
aI32039191
aI14052171
aI13105801
aI37027281
aI14070101
aI34012701
aI32028811
aI44051101
aI32106011
aI61040901
aI13073701
aI64011501
aI42040701
aI32034101
aI33061801
aI37131901
aI63050101
aI22050801
aI34061801
aI43101501
aI44084301
aI32061001
aI62020501
aI53031701
aI32131601
aI45010491
aI13091401
aI35081301
aI45120071
aI44001261
aI33023801
aI44101281
aI43071501
aI53081001
aI35034101
aI51173201
aI41081401
aI44109501
aI32071501
aI62081001
aI37110501
aI51010361
aI14102701
aI62050901
aI44012101
aI35010411
aI51170081
aI21013901
aI45030271
aI52221201
aI43020311
aI53032901
aI41171501
aI42052601
aI44105801
aI43112301
aI51020901
aI34080701
aI34019401
aI62050501
aI35070192
aI41143001
aI37100801
aI41092001
aI44051301
aI45032201
aI14103521
aI51140201
aI32031101
aI34161001
aI36075001
aI13092901
aI36114901
aI62040901
aI43071901
aI33094201
aI43041901
aI42061801
aI51068201
aI61041401
aI32052001
aI52040701
aI52221901
aI52231101
aI44101051
aI43090501
aI43101901
aI11010841
aI41014801
aI35054001
aI37053601
aI42062501
aI32024801
aI13351401
aI44103501
aI15100109
aI22091101
aI65420101
aI13017701
aI31081901
aI45050131
aI41111901
aI23122221
aI14070402
aI44106201
aI65900411
aI35061001
aI43090301
aI13018301
aI52034001
aI44182401
aI35023911
aI22032001
aI33018671
aI13061901
aI42081401
aI21090081
aI23072031
aI32038411
aI33101101
aI43111401
aI13017801
aI14013751
aI13021401
aI45032001
aI53261001
aI43051801
aI45130031
aI32060302
aI35084381
aI44221401
aI43041301
aI14103581
aI63020051
aI52220501
aI15041316
aI44011661
aI41172901
aI44101441
aI61062401
aI53081401
aI52033301
aI45090081
aI21050091
aI52270801
aI22021203
aI36071001
aI44220101
aI37157061
aI41141501
aI35013911
aI41121101
aI51130611
aI45061101
aI32051501
aI13033101
aI14083681
aI44012621
aI14052451
aI13082401
aI53251201
aI50090071
aI43084401
aI15011581
aI13092601
aI32110601
aI61011071
aI45140031
aI33068701
aI41091501
aI15030104
aI61015801
aI13022301
aI13351706
aI42081901
aI13042801
aI44011811
aI37160401
aI41092501
aI11080202
aI62041101
aI14242681
aI53250101
aI22090902
aI34132501
aI41041401
aI44022201
aI42010301
aI36113501
aI32071901
aI14080701
aI32132301
aI45060901
aI63010402
aI43103201
aI44061501
aI62110401
aI44090601
aI44141601
aI44103101
aI52221801
aI51118201
aI23120221
aI32026801
aI33056401
aI42019041
aI61100601
aI43081301
aI44101361
aI41032401
aI44001161
aI13101101
aI37187011
aI35034091
aI44110301
aI41161401
aI42111901
aI44170201
aI43082201
aI41141301
aI15071401
aI65282711
aI37034601
aI65400201
aI22042001
aI35073861
aI51140031
aI53016701
aI35054151
aI13061201
aI41151801
aI35054121
aI34171201
aI43030901
aI35080102
aI50240101
aI53250801
aI51108301
aI44162801
aI32101501
aI15050991
aI44072401
aI65220111
aI32019081
aI53260401
aI41133001
aI62060101
aI21031501
aI43032401
aI44139801
aI44123501
aI44116401
aI52021601
aI13042201
aI43100101
aI64020331
aI41101601
aI36071501
aI44101211
aI46160101
aI15060102
aI43031801
aI51090081
aI52231201
aI22080901
aI35071301
aI43090601
aI37027071
aI43030201
aI53310401
aI53291401
aI45110061
aI33031001
aI63020011
aI15110201
aI46170101
aI51048201
aI43081201
aI44050701
aI64010321
aI13042701
aI21070501
aI61101201
aI32084811
aI34131101
aI44081201
aI51015891
aI13063701
aI44131131
aI45030491
aI37127021
aI45110041
aI22031301
aI13024801
aI15221101
aI41042601
aI62020701
aI15012131
aI62051101
aI42090101
aI44136801
aI45080801
aI53041101
aI34050801
aI44052301
aI51015701
aI53060301
aI34080302
aI42047611
aI13024901
aI44191001
aI15122181
aI35084181
aI35054111
aI43031901
aI51012801
aI13351901
aI13062406
aI37151801
aI21010731
aI33018131
aI61100101
aI14011801
aI32075311
aI64031401
aI33074201
aI61081001
aI43101201
aI13093301
aI52271501
aI52012601
aI32083811
aI35011102
aI44001951
aI46032101
aI45020161
aI31184201
aI61031501
aI33064801
aI22031801
aI36100011
aI22032101
aI43102501
aI36090461
aI53041901
aI44109801
aI13060102
aI32108911
aI36044701
aI43021401
aI13063001
aI52041001
aI61060201
aI43120501
aI41162201
aI14240201
aI51108401
aI36100131
aI33065401
aI63050041
aI62071101
aI44114301
aI35054831
aI54210001
aI44052001
aI43081101
aI43030601
aI37051901
aI62140701
aI44021401
aI42091301
aI36114601
aI22031701
aI41031901
aI53041701
aI62030801
aI23122211
aI45080111
aI14052691
aI41011231
aI61032001
aI41152101
aI52270901
aI35064431
aI51140071
aI52012701
aI42070901
aI61092901
aI65280102
aI34031001
aI23210101
aI13091901
aI51120431
aI14082921
aI11080402
aI51190011
aI44131151
aI13025501
aI32028411
aI53091201
aI43061401
aI37037221
aI43081901
aI65232301
aI23030211
aI43120901
aI14073761
aI12140616
aI22051001
aI61070701
aI42103101
aI43091601
aI37022501
aI13019701
aI11075101
aI43110601
aI51108201
aI44141901
aI14023001
aI37070701
aI15051481
aI23090311
aI52032801
aI35054131
aI52262201
aI52030901
aI42120301
aI14240401
aI42014401
aI65400311
aI45030281
aI41174201
aI35010391
aI50420101
aI15061841
aI36111301
aI43084001
aI44022601
aI45030381
aI41092301
aI35031601
aI36110291
aI33045501
aI13061101
aI14110901
aI33051801
aI45110071
aI13017311
aI44196002
aI62050801
aI43021101
aI23090101
aI22112001
aI13042101
aI36042801
aI44133301
aI45110091
aI43130401
aI45010471
aI46032201
aI53080601
aI37061201
aI37041601
aI53014501
aI44085601
aI41031601
aI31090902
aI14081401
aI51093101
aI21070801
aI44061701
aI36100281
aI13023001
aI62050401
aI36113101
aI11141281
aI42151101
aI42082401
aI31010401
aI41083301
aI36071601
aI62090801
aI41111701
aI12120921
aI62141001
aI42092901
aI13031901
aI34171301
aI34102901
aI13010201
aI53018001
aI36072801
aI43122401
aI14023021
aI14073391
aI53280601
aI15051001
aI15101121
aI37090101
aI44040201
aI15003211
aI22114401
aI15110103
aI34150701
aI51110011
aI53251901
aI13025901
aI21110402
aI41051701
aI41061501
aI51096211
aI63010181
aI14032991
aI36075501
aI45110161
aI61011031
aI14023101
aI65280105
aI41141701
aI37117121
aI43083601
aI32044411
aI61100701
aI13105201
aI51140131
aI36075701
aI32111611
aI15011361
aI37022701
aI32134611
aI36015501
aI22020201
aI35064851
aI13050101
aI36100241
aI21100402
aI44152201
aI34141401
aI36041301
aI32033602
aI36013001
aI34130901
aI44040301
aI41173101
aI65900401
aI32029681
aI42017401
aI14073441
aI44180501
aI43091901
aI36090331
aI43102801
aI65402311
aI34132001
aI44085301
aI65300111
aI51036902
aI34170501
aI61050301
aI41173001
aI37167081
aI53012601
aI13032201
aI13018501
aI41032301
aI51150401
aI13018701
aI37037281
aI41014101
aI37097101
aI37027032
aI32065211
aI61101001
aI53050601
aI41071901
aI41174101
aI13072301
aI62070201
aI42040101
aI53031401
aI13082901
aI52231501
aI37180501
aI65900402
aI36031001
aI51160301
aI35081401
aI61081101
aI15020302
aI44031501
aI14053411
aI23022111
aI53231301
aI62141201
aI41142601
aI62090401
aI32061601
aI32052711
aI44031901
aI14083301
aI35084231
aI53018201
aI15051541
aI53013501
aI13031101
aI42042001
aI61031201
aI44108501
aI41162801
aI35021501
aI13106201
aI35024441
aI43111901
aI45110111
aI61051701
aI13093101
aI50080601
aI31141807
aI13030601
aI37121401
aI65400202
aI36075301
aI41132801
aI44011471
aI23122611
aI44084701
aI44133601
aI14050801
aI65210111
aI61051501
aI52032901
aI32108211
aI61071301
aI50250031
aI43121301
aI37187161
aI61062501
aI44011561
aI14243031
aI15110104
aI22051301
aI42019111
aI62060401
aI37027051
aI50270101
aI22115001
aI43121201
aI52261001
aI37140901
aI43012301
aI44050301
aI21011021
aI61050801
aI36030701
aI35063851
aI44011361
aI12150951
aI21013301
aI44011721
aI35054811
aI43120701
aI43100901
aI64010261
aI23018411
aI14023511
aI13017601
aI32062811
aI33022301
aI43072001
aI23012311
aI62011701
aI13351201
aI61050601
aI65010611
aI23210201
aI45010601
aI53080501
aI13042501
aI65402511
aI44201601
aI53051101
aI37041501
aI35091601
aI13090801
aI62040801
aI44051401
aI34031801
aI34013801
aI53080701
aI52271801
aI37137081
aI44124001
aI61071901
aI43021501
aI53340201
aI44081301
aI61092601
aI36072601
aI65272211
aI36050901
aI35060191
aI32050502
aI32130301
aI36081401
aI44130702
aI36081501
aI52222101
aI22115301
aI13106101
aI35080801
aI61060401
aI12215901
aI44007701
aI62141301
aI14052741
aI14052771
aI34172001
aI32041401
aI41171401
aI23052501
aI62050301
aI44201301
aI51110181
aI36113301
aI35080401
aI33053101
aI52021901
aI52220801
aI53090701
aI61030701
aI14020401
aI61040601
aI34171401
aI33083000
aI21060401
aI41131601
aI63050051
aI43102201
aI53342101
aI33035001
aI43042201
aI23019931
aI62061301
aI61032501
aI37117091
aI12070661
aI34100101
aI21100701
aI65900502
aI53041801
aI50020101
aI51016041
aI37101301
aI31030602
aI52262001
aI15221121
aI23080241
aI53310201
aI51036411
aI62080201
aI14061202
aI44091001
aI53310301
aI42102601
aI21110131
aI61080601
aI14243771
aI44151401
aI22114101
aI44012581
aI65402201
aI13090103
aI36090321
aI53261201
aI61061901
aI13026401
aI44131602
aI53062001
aI52041101
aI52031401
aI46030701
aI33016801
aI35080502
aI52230601
aI65010491
aI43122101
aI53041001
aI36110601
aI45120061
aI33082901
aI32111711
aI37070601
aI43061601
aI14113421
aI32105611
aI65010302
aI65402421
aI53013401
aI52271601
aI37057211
aI62013101
aI65220151
aI22080201
aI52221101
aI33011402
aI65232011
aI45110151
aI22060201
aI44201201
aI32122811
aI61032601
aI53090501
aI61100501
aI32134211
aI21060151
aI23128111
aI14093651
aI15021811
aI34012501
aI61012601
aI23013501
aI41043101
aI61061501
aI41074201
aI34023601
aI41131801
aI45110181
aI53041301
aI23080201
aI42033701
aI15010107
aI33080801
aI44001941
aI37107101
aI46150101
aI44108001
aI44141502
aI34023501
aI13024101
aI43131001
aI36090271
aI22070801
aI21011011
aI13017201
aI44180902
aI34091401
aI53294301
aI33078401
aI15041421
aI43061101
aI44138601
aI44114501
aI42121601
aI45090101
aI34172201
aI14112291
aI45020121
aI42019591
aI37067211
aI13101001
aI53260901
aI23053501
aI32107511
aI31010201
aI52241201
aI44224101
aI23022411
aI52231001
aI51200101
aI51016121
aI62120801
aI45080181
aI13105001
aI13020901
aI36082901
aI44201001
aI34012001
aI36091701
aI50010141
aI15041831
aI34016901
aI33073901
aI65422121
aI22032706
aI61100401
aI43050301
aI44140301
aI15100103
aI14073401
aI44101131
aI65901021
aI37117061
aI13072901
aI53281101
aI41043501
aI61061201
aI43012801
aI36090241
aI37067191
aI52222301
aI44191201
aI15011001
aI14053061
aI22050601
aI33081101
aI23022101
aI22070601
aI23053701
aI32109091
aI15251661
aI33019381
aI32045211
aI15060106
aI36080171
aI43111201
aI62130501
aI37127031
aI62040301
aI13025001
aI35090801
aI35024552
aI44005402
aI13093601
aI44131231
aI15050107
aI43040301
aI53013001
aI62091001
aI15053251
aI42040401
aI35081501
aI23012411
aI45070131
aI21024501
aI62091301
aI53014801
aI44151001
aI13041201
aI12120991
aI52031501
aI14072841
aI62050701
aI44012281
aI51010131
aI41017601
aI44022301
aI37053201
aI32080301
aI52271101
aI41141801
aI32037011
aI11010803
aI61090901
aI42011501
aI51180031
aI43131701
aI41082501
aI13106701
aI53060601
aI65900211
aI52271201
aI14081001
aI33048001
aI44091901
aI44162901
aI13025701
aI21080102
aI37067101
aI35081601
aI13024201
aI45050181
aI15072071
aI22032401
aI41131101
aI15041291
aI43011011
aI44010502
aI53031801
aI37037141
aI43012002
aI36080181
aI53041201
aI52221301
aI65010205
aI43130601
aI13101301
aI63040101
aI41161701
aI50400101
aI33110701
aI15010104
aI13106001
aI44060701
aI62120701
aI15071701
aI42111101
aI22091001
aI36072701
aI50320101
aI44133101
aI15011326
aI62120301
aI65281011
aI53290701
aI15051161
aI13024500
aI36042601
aI61042101
aI32109141
aI61051601
aI36074801
aI51130101
aI11050951
aI43031201
aI52260701
aI52270301
aI43050501
aI15050106
aI32040702
aI13040601
aI53310102
aI65232711
aI62091201
aI32041102
aI61052401
aI37027142
aI44106801
aI37141101
aI13020391
aI53030801
aI53310901
aI37037331
aI37053001
aI13013701
aI51015931
aI22051501
aI41073201
aI32051201
aI36072301
aI22040701
aI63060011
aI22041601
aI23038321
aI13100501
aI65402501
aI13080501
aI15251981
aI43041801
aI53016901
aI53091601
aI64012101
aI14012611
aI21020101
aI61041101
aI42102901
aI14072661
aI43091401
aI34141501
aI14012281
aI31164701
aI14012621
aI32090202
aI15011821
aI62020201
aI41092701
aI22116101
aI35031701
aI11061421
aI61061401
aI13042601
aI22022301
aI43051601
aI14073161
aI13042901
aI37141601
aI33020901
aI36110501
aI41073301
aI51019931
aI44200401
aI64031002
aI37122401
aI41093201
aI62120401
aI43042001
aI44060801
aI61081401
aI32073611
aI61061101
aI43121401
aI43043701
aI43052501
aI46031401
aI44163101
aI52262301
aI37141401
aI53013701
aI37071601
aI65220121
aI14052591
aI43041201
aI41131501
aI61071801
aI52261901
aI51210041
aI42071601
aI65010602
aI42092801
aI13052701
aI22113801
aI37131001
aI14083201
aI23052111
aI53032101
aI32033001
aI23050611
aI42053201
aI44050601
aI23022121
aI53060101
aI42100101
aI44181201
aI52220101
aI65290103
aI43131901
aI62080901
aI45040901
aI13101701
aI62050101
aI33097001
aI51174221
aI32080202
aI15040501
aI13020701
aI14110201
aI44190401
aI61080801
aI44006001
aI37027221
aI42015201
aI61092201
aI43050601
aI22111802
aI52262601
aI43121801
aI62090201
aI37091201
aI23014001
aI37052801
aI51128201
aI44060302
aI33112301
aI35012901
aI51210161
aI62012201
aI21030291
aI13071701
aI44135601
aI13022201
aI33097601
aI52031801
aI44060902
aI22030802
aI21014601
aI62040501
aI51036341
aI52230801
aI15060104
aI62070301
aI62060801
aI53090801
aI37131201
aI52261601
aI14081201
aI62070801
aI14052501
aI53330401
aI23123001
aI65232401
aI32100802
aI41162601
aI62030501
aI13031501
aI13082501
aI37067021
aI31141007
aI61081301
aI61072101
aI44013601
aI34140701
aI52261301
aI22041201
aI13093001
aI61071701
aI53060801
aI23052171
aI52031901
aI23043311
aI53230801
aI23102121
aI52261701
aI15060103
aI21020781
aI43071701
aI41141201
aI15012101
aI61062301
aI37062701
aI13016001
aI52261201
aI35052201
aI52260801
aI51158301
aI44006101
aI52031601
aI23022211
aI42093101
aI53081301
aI23072321
aI65312502
aI11051703
aI33041502
aI62100101
aI62100201
aI14020601
aI53040401
aI32039181
aI43051301
aI50260101
aI42081601
aI43022501
aI61091001
aI36072401
aI43121601
aI50410041
aI37187101
aI61020401
aI15060101
aI41132601
aI33076031
aI32073411
aI62090601
aI21010711
aI63050202
aI41134001
aI53090601
aI14072871
aI14102861
aI53260301
aI34170901
aI15041476
aI52261401
aI14023011
aI63040021
aI14240801
aI43084501
aI61030401
aI37141701
aI11011381
aI13033801
aI65280107
aI44181002
aI37187111
aI13030303
aI51078801
aI14073181
aI15011410
aI44180702
aI21050401
aI32109071
aI62140103
aI14013531
aI37090302
aI65400303
aI15052191
aI42121701
aI65220101
aI13101901
aI44002602
aI41131401
aI23022911
aI14022941
aI36112501
aI33100602
aI14103651
aI15031271
aI14070801
aI22114701
aI43084601
aI65220103
aI36090431
aI34091301
aI44120302
aI65020401
aI52033801
aI32133611
aI31190202
aI43061901
aI51210201
aI65312411
aI45110131
aI62040601
aI15071231
aI62140401
aI23038311
aI22021601
aI23122511
aI51200151
aI14082551
aI31141607
aI51218201
aI51118441
aI43121901
aI23033701
aI51083221
aI51036201
aI32075411
aI23042811
aI52020501
aI15040931
aI43101701
aI15090301
aI61091301
aI14050201
aI33118301
aI13015001
aI41121901
aI65282811
aI61100301
aI61081501
aI42170901
aI15121211
aI45130061
aI50070171
aI32031402
aI41172701
aI51040021
aI54262121
aI43121001
aI44116901
aI65290105
aI42111701
aI61051101
aI43043301
aI61092401
aI14073721
aI52261101
aI13101401
aI15040831
aI50160101
aI43121501
aI32133211
aI23032521
aI65290102
aI65312211
aI15075031
aI43043401
aI64011701
aI14102761
aI23090201
aI43101801
aI41133701
aI43062001
aI51158401
aI32109111
aI14072891
aI23042021
aI65310103
aI65901071
aI52013101
aI32132201
aI51210051
aI42093201
aI31114501
aI37147051
aI35060501
aI62080501
aI50130151
aI44111701
aI45130071
aI21070701
aI44182201
aI61032701
aI21060171
aI15071461
aI61091501
aI35014056
aI53230301
aI22060301
aI31129501
aI50070181
aI23130101
aI34010901
aI15071171
aI34070701
aI15071336
aI21010871
aI53252201
aI53031201
aI13080601
aI42160101
aI15060961
aI53080801
aI43010901
aI14083051
aI34082301
aI13070501
aI37157021
aI32071704
aI51010702
aI35054601
aI14112301
aI53291501
aI15020105
aI13093201
aI14102881
aI13090501
aI46050101
aI13030801
aI15030107
aI65272201
aI41132301
aI44210502
aI36100151
aI42112501
aI37036401
aI15030501
aI41134101
aI32072711
aI61092001
aI44050502
aI42101201
aI22042401
aI13071201
aI52262101
aI31071202
aI23092111
aI53017001
aI53251701
aI15252031
aI23068111
aI23072211
aI34080401
aI53080901
aI15030604
aI53292001
aI53230201
aI53032601
aI36113201
aI31074501
aI65292211
aI14243821
aI53251401
aI44101141
aI37141201
aI37053501
aI52260901
aI53070501
aI45030461
aI43012901
aI53260601
aI14052921
aI32083111
aI43014201
aI61090601
aI65270103
aI51118301
aI43050401
aI53310601
aI65422411
aI14102781
aI13014401
aI33080901
aI65900311
aI43018801
aI65230151
aI22032806
aI14102821
aI53070401
aI44101302
aI52261501
aI37111201
aI43043601
aI36015101
aI52041201
aI43072401
aI15071221
aI13101501
aI32014201
aI53340101
aI21040111
aI51200091
aI33018552
aI43062601
aI61092701
aI22041501
aI15221301
aI62140801
aI41133201
aI37087201
aI14102581
aI21010101
aI23072051
aI53352301
aI44222701
aI52241401
aI41172401
aI53050801
aI15051251
aI15031801
aI14060601
aI43121701
aI62090501
aI41061801
aI13011051
aI61062001
aI23029701
aI65212201
aI23132311
aI62050601
aI36090311
aI37151101
aI23112121
aI51015851
aI15060107
aI13091001
aI14103281
aI22081301
aI44001661
aI53050701
aI53080201
aI44060501
aI21020791
aI51036811
aI44180802
aI14113191
aI52031301
aI61091801
aI53091001
aI37107041
aI65901031
aI53014701
aI37057072
aI53291201
aI53060501
aI53061901
aI41134601
aI15051501
aI64031102
aI52262801
aI62080301
aI65422301
aI41070102
aI23082061
aI65302211
aI61032201
aI36044301
aI13033901
aI51180211
aI61013901
aI65010208
aI53012701
aI23051401
aI23072411
aI14052331
aI36090261
aI62120501
aI23079941
aI23110101
aI53050501
aI11071321
aI15030108
aI15221721
aI61092501
aI43062401
aI61061001
aI51073201
aI43140901
aI37131301
aI22031002
aI65900421
aI22081401
aI15041241
aI65422611
aI41131901
aI53070301
aI15103221
aI44012681
aI23033201
aI46130101
aI36072201
aI31133507
aI45030541
aI33080602
aI31073703
aI44122301
aI41161801
aI46020901
aI53310501
aI62070701
aI53091501
aI43071401
aI34160401
aI15031441
aI22111101
aI51210021
aI15031061
aI43050801
aI44131302
aI15100102
aI62080401
aI65402301
aI65220102
aI61050901
aI37052901
aI52261801
aI36111101
aI65280106
aI23014101
aI33080301
aI35080202
aI54252101
aI52270501
aI34022501
aI53061801
aI37187031
aI37167041
aI53252101
aI65400203
aI65900501
aI37053701
aI65010621
aI53310801
aI61042301
aI52032301
aI21030242
aI15021601
aI65280103
aI15030957
aI61070401
aI53230901
aI31133107
aI42031001
aI63030011
aI22061201
aI43091501
aI23022711
aI65422511
aI61052301
aI44141201
aI23102211
aI51036301
aI50050602
aI13100701
aI53291701
aI62141401
aI14102391
aI64030102
aI15031515
aI37107081
aI33082001
aI41021301
aI15070102
aI53011901
aI51036331
aI14242651
aI53061301
aI23130311
aI11012201
aI65292311
aI33011102
aI63011001
aI14023331
aI62051001
aI31129801
aI53060201
aI65280104
aI65420211
aI37187071
aI15030911
aI35081001
aI53230501
aI35044001
aI41134501
aI13062801
aI41093101
aI65422101
aI53290601
aI22080401
aI44120102
aI13040301
aI37187151
aI23132321
aI65232511
aI21110501
aI53330301
aI21120141
aI33076001
aI11086701
aI50050151
aI41173701
aI32082911
aI14022631
aI23038411
aI14093431
aI15251141
aI33019261
aI23112311
aI63020041
aI44105102
aI21024201
aI37157081
aI15061356
aI53231001
aI15100108
aI62090701
aI44110402
aI14050901
aI45080161
aI53060701
aI42019081
aI62141601
aI52271401
aI44091401
aI51210291
aI53261601
aI53230701
aI41041901
aI51210211
aI53041401
aI37180202
aI23012421
aI44131002
aI35050701
aI13350801
aI36060101
aI37051601
aI65210101
aI41131701
aI65430101
aI43013901
aI13080701
aI34050203
aI61060901
aI31132407
aI45020091
aI33032901
aI53230601
aI41093301
aI42040901
aI33018532
aI13091801
aI34090101
aI53081201
aI65282821
aI33024401
aI31141907
aI63070021
aI65270111
aI42031401
aI53081501
aI15030204
aI31133407
aI51130811
aI43063401
aI14011203
aI14073811
aI53291101
aI65292811
aI61091601
aI33011701
aI31031303
aI65400411
aI37021401
aI53081101
aI23059961
aI33041101
aI65402601
aI15060854
aI65292711
aI64041302
aI44030501
aI53291601
aI32090502
aI44001871
aI21080301
aI41031101
aI41174501
aI53291901
aI61011021
aI53061101
aI13031201
aI61060601
aI42010701
aI65432311
aI15051281
aI31073603
aI37071901
aI13093501
aI14053471
aI52220301
aI31124006
aI65212202
aI37107061
aI15100921
aI22023001
aI22042306
aI14112191
aI22023101
aI37027271
aI35054161
aI23040411
aI15102091
aI65320101
aI53342201
aI15011346
aI15061611
aI61061601
aI15121271
aI37067171
aI46011002
aI44012901
aI65222311
aI61080501
aI51010061
aI36015001
aI36017001
aI32033501
aI21010811
aI51018901
aI53230401
aI31113703
aI13060401
aI44117001
aI36115101
aI11051431
aI53291801
aI13041001
aI23033601
aI14110502
aI65312611
aI41018001
aI51140301
aI13012001
aI46200101
aI15032171
aI65313011
aI65900201
aI43091801
aI54010203
aI41042301
aI65222211
aI36015701
aI31133307
aI43082501
aI53061001
aI42150901
aI65282511
aI43130801
aI31030102
aI15251381
aI53041501
aI61020101
aI37107111
aI44121001
aI13104802
aI43070302
aI65292511
aI33061101
aI54230011
aI53251301
aI64050302
aI51200021
aI15040103
aI65292901
aI23110201
aI22042201
aI14113501
aI22033101
aI45030431
aI32016514
aI36098201
aI37151701
aI14073841
aI15030306
aI32110701
aI31082003
aI44106101
aI51200041
aI13012501
aI11020542
aI64031202
aI53061201
aI65282301
aI36043201
aI44133701
aI53091401
aI45080141
aI22041701
aI15062151
aI36014101
aI36045101
aI14243111
aI32013801
aI65282601
aI23051001
aI31165301
aI53091101
aI65010931
aI43021201
aI65422131
aI37052001
aI53070201
aI51176111
aI34171101
aI51120701
aI36012301
aI65402411
aI51200061
aI31128401
aI46170201
aI53060401
aI15251771
aI37150502
aI21011041
aI32131201
aI51200881
aI61090201
aI41018101
aI37060502
aI13071101
aI22110501
aI33062301
aI64050402
aI21140601
aI51200051
aI51018801
aI51200071
aI31131407
aI53030301
aI41072001
aI41132701
aI45120081
aI15101021
aI51140011
aI34092001
aI53293501
aI14082761
aI53231601
aI21100501
aI53294001
aI53294101
aI53231701
aI62080101
aI53311101
aI53281001
aI22070401
aI53261401
aI15101491
aI65282201
aI53232501
aI53311301
aI13012701
aI64041202
aI53280901
aI53293801
aI53231901
aI51200011
aI53292501
aI53232201
aI53293001
aI51200311
aI53293301
aI53292301
aI53311201
aI53231801
aI23080231
aI53232401
aI53293401
aI53292901
aI53292601
aI53017501
aI51106171
aI53311001
aI53232001
aI15251781
aI15030105
aI53232301
aI53231501
aI53261501
aI42051401
aI54230021
aI53292701
aI50360026
aI53251801
aI53293101
aI53290901
aI53291301
aI15041881
aI44153101
aI51200211
aI34171001
aI61070801
aI44101251
aI42014101
aI11067401
aI53292201
aI51040031
aI41171101
aI11140731
aI21016401
aI44112101
aI23079931
aI21130131
aI13017501
aI37040901
aI43018701
aI37107121
aI53293201
aI15252041
aI32130601
aI64020402
aI42120801
aI32039021
aI53232101
aI13026901
aI15110871
aI51200031
aI53310701
aI52222201
aI21140141
aI50120312
aI31152307
aI35054531
aI15062201
aI43140601
aI65212203
aI53016801
aI65900221
aI65270211
aI65010521
aI15101751
aI54262131
aI61100901
aI33022001
aI54016211
aI33093201
aI13055501
aI65282211
aI65312501
aI33018811
aI42061701
aI42172001
aI61051901
aI64020061
aI42040201
aI44130102
aI53330201
aI12110841
aI44131501
aI34051201
aI31133207
aI53011701
aI44090801
aI31125703
aI11085801
aI37033001
aI44005801
aI21030281
aI51106101
aI41092901
aI44019501
aI37027321
aI51150441
aI23070301
aI44002003
aI33073601
aI61060301
aI21023801
aI44020102
aI35051801
aI65013051
aI37181001
aI37121101
aI32105811
aI31194101
aI31133707
aI61080401
aI44223101
aI11060561
aI35080901
aI33082602
aI13070102
aI31011601
aI44081901
aI53015601
aI32029431
aI37022601
aI37080901
aI65010304
aI45012801
aI44150901
a.